
bin\assign1-0.exe:     file format pei-x86-64


Disassembly of section .text:

0000000000401000 <__mingw_invalidParameterHandler>:
  401000:	c3                   	retq   
  401001:	0f 1f 44 00 00       	nopl   0x0(%rax,%rax,1)
  401006:	66 2e 0f 1f 84 00 00 	nopw   %cs:0x0(%rax,%rax,1)
  40100d:	00 00 00 

0000000000401010 <pre_c_init>:
  401010:	48 83 ec 28          	sub    $0x28,%rsp
  401014:	48 8b 05 b5 45 00 00 	mov    0x45b5(%rip),%rax        # 4055d0 <.refptr.mingw_initltsdrot_force>
  40101b:	31 d2                	xor    %edx,%edx
  40101d:	c7 00 01 00 00 00    	movl   $0x1,(%rax)
  401023:	48 8b 05 b6 45 00 00 	mov    0x45b6(%rip),%rax        # 4055e0 <.refptr.mingw_initltsdyn_force>
  40102a:	c7 00 01 00 00 00    	movl   $0x1,(%rax)
  401030:	48 8b 05 b9 45 00 00 	mov    0x45b9(%rip),%rax        # 4055f0 <.refptr.mingw_initltssuo_force>
  401037:	c7 00 01 00 00 00    	movl   $0x1,(%rax)
  40103d:	48 8b 05 7c 45 00 00 	mov    0x457c(%rip),%rax        # 4055c0 <.refptr.mingw_initcharmax>
  401044:	c7 00 01 00 00 00    	movl   $0x1,(%rax)
  40104a:	48 8b 05 ff 43 00 00 	mov    0x43ff(%rip),%rax        # 405450 <.refptr.__image_base__>
  401051:	66 81 38 4d 5a       	cmpw   $0x5a4d,(%rax)
  401056:	74 78                	je     4010d0 <pre_c_init+0xc0>
  401058:	48 8b 05 51 45 00 00 	mov    0x4551(%rip),%rax        # 4055b0 <.refptr.mingw_app_type>
  40105f:	89 15 a3 6f 00 00    	mov    %edx,0x6fa3(%rip)        # 408008 <managedapp>
  401065:	8b 00                	mov    (%rax),%eax
  401067:	85 c0                	test   %eax,%eax
  401069:	74 57                	je     4010c2 <pre_c_init+0xb2>
  40106b:	b9 02 00 00 00       	mov    $0x2,%ecx
  401070:	e8 3b 22 00 00       	callq  4032b0 <__set_app_type>
  401075:	48 c7 c1 ff ff ff ff 	mov    $0xffffffffffffffff,%rcx
  40107c:	e8 4f 11 00 00       	callq  4021d0 <_encode_pointer>
  401081:	48 8b 15 58 44 00 00 	mov    0x4458(%rip),%rdx        # 4054e0 <.refptr.__onexitend>
  401088:	48 89 02             	mov    %rax,(%rdx)
  40108b:	48 8b 15 3e 44 00 00 	mov    0x443e(%rip),%rdx        # 4054d0 <.refptr.__onexitbegin>
  401092:	48 89 02             	mov    %rax,(%rdx)
  401095:	48 8b 05 a4 44 00 00 	mov    0x44a4(%rip),%rax        # 405540 <.refptr._fmode>
  40109c:	8b 10                	mov    (%rax),%edx
  40109e:	48 8b 05 db 43 00 00 	mov    0x43db(%rip),%rax        # 405480 <.refptr.__imp__fmode>
  4010a5:	48 8b 00             	mov    (%rax),%rax
  4010a8:	89 10                	mov    %edx,(%rax)
  4010aa:	e8 11 0d 00 00       	callq  401dc0 <_setargv>
  4010af:	48 8b 05 3a 43 00 00 	mov    0x433a(%rip),%rax        # 4053f0 <.refptr._MINGW_INSTALL_DEBUG_MATHERR>
  4010b6:	83 38 01             	cmpl   $0x1,(%rax)
  4010b9:	74 65                	je     401120 <pre_c_init+0x110>
  4010bb:	31 c0                	xor    %eax,%eax
  4010bd:	48 83 c4 28          	add    $0x28,%rsp
  4010c1:	c3                   	retq   
  4010c2:	b9 01 00 00 00       	mov    $0x1,%ecx
  4010c7:	e8 e4 21 00 00       	callq  4032b0 <__set_app_type>
  4010cc:	eb a7                	jmp    401075 <pre_c_init+0x65>
  4010ce:	66 90                	xchg   %ax,%ax
  4010d0:	48 63 48 3c          	movslq 0x3c(%rax),%rcx
  4010d4:	48 01 c8             	add    %rcx,%rax
  4010d7:	81 38 50 45 00 00    	cmpl   $0x4550,(%rax)
  4010dd:	0f 85 75 ff ff ff    	jne    401058 <pre_c_init+0x48>
  4010e3:	0f b7 48 18          	movzwl 0x18(%rax),%ecx
  4010e7:	66 81 f9 0b 01       	cmp    $0x10b,%cx
  4010ec:	74 45                	je     401133 <pre_c_init+0x123>
  4010ee:	66 81 f9 0b 02       	cmp    $0x20b,%cx
  4010f3:	0f 85 5f ff ff ff    	jne    401058 <pre_c_init+0x48>
  4010f9:	83 b8 84 00 00 00 0e 	cmpl   $0xe,0x84(%rax)
  401100:	0f 86 52 ff ff ff    	jbe    401058 <pre_c_init+0x48>
  401106:	8b 88 f8 00 00 00    	mov    0xf8(%rax),%ecx
  40110c:	31 d2                	xor    %edx,%edx
  40110e:	85 c9                	test   %ecx,%ecx
  401110:	0f 95 c2             	setne  %dl
  401113:	e9 40 ff ff ff       	jmpq   401058 <pre_c_init+0x48>
  401118:	0f 1f 84 00 00 00 00 	nopl   0x0(%rax,%rax,1)
  40111f:	00 
  401120:	48 8d 0d 99 0f 00 00 	lea    0xf99(%rip),%rcx        # 4020c0 <_matherr>
  401127:	e8 84 0f 00 00       	callq  4020b0 <__mingw_setusermatherr>
  40112c:	31 c0                	xor    %eax,%eax
  40112e:	48 83 c4 28          	add    $0x28,%rsp
  401132:	c3                   	retq   
  401133:	83 78 74 0e          	cmpl   $0xe,0x74(%rax)
  401137:	0f 86 1b ff ff ff    	jbe    401058 <pre_c_init+0x48>
  40113d:	44 8b 80 e8 00 00 00 	mov    0xe8(%rax),%r8d
  401144:	31 d2                	xor    %edx,%edx
  401146:	45 85 c0             	test   %r8d,%r8d
  401149:	0f 95 c2             	setne  %dl
  40114c:	e9 07 ff ff ff       	jmpq   401058 <pre_c_init+0x48>
  401151:	0f 1f 44 00 00       	nopl   0x0(%rax,%rax,1)
  401156:	66 2e 0f 1f 84 00 00 	nopw   %cs:0x0(%rax,%rax,1)
  40115d:	00 00 00 

0000000000401160 <pre_cpp_init>:
  401160:	48 83 ec 38          	sub    $0x38,%rsp
  401164:	48 8b 05 25 44 00 00 	mov    0x4425(%rip),%rax        # 405590 <.refptr._newmode>
  40116b:	4c 8d 05 9e 6e 00 00 	lea    0x6e9e(%rip),%r8        # 408010 <envp>
  401172:	48 8d 15 9f 6e 00 00 	lea    0x6e9f(%rip),%rdx        # 408018 <argv>
  401179:	48 8d 0d a0 6e 00 00 	lea    0x6ea0(%rip),%rcx        # 408020 <argc>
  401180:	8b 00                	mov    (%rax),%eax
  401182:	89 05 78 6e 00 00    	mov    %eax,0x6e78(%rip)        # 408000 <__bss_start__>
  401188:	48 8d 05 71 6e 00 00 	lea    0x6e71(%rip),%rax        # 408000 <__bss_start__>
  40118f:	48 89 44 24 20       	mov    %rax,0x20(%rsp)
  401194:	48 8b 05 95 43 00 00 	mov    0x4395(%rip),%rax        # 405530 <.refptr._dowildcard>
  40119b:	44 8b 08             	mov    (%rax),%r9d
  40119e:	e8 25 21 00 00       	callq  4032c8 <__getmainargs>
  4011a3:	90                   	nop
  4011a4:	48 83 c4 38          	add    $0x38,%rsp
  4011a8:	c3                   	retq   
  4011a9:	0f 1f 80 00 00 00 00 	nopl   0x0(%rax)

00000000004011b0 <__tmainCRTStartup>:
  4011b0:	41 55                	push   %r13
  4011b2:	41 54                	push   %r12
  4011b4:	55                   	push   %rbp
  4011b5:	57                   	push   %rdi
  4011b6:	56                   	push   %rsi
  4011b7:	53                   	push   %rbx
  4011b8:	48 81 ec 98 00 00 00 	sub    $0x98,%rsp
  4011bf:	b9 0d 00 00 00       	mov    $0xd,%ecx
  4011c4:	31 c0                	xor    %eax,%eax
  4011c6:	48 8d 54 24 20       	lea    0x20(%rsp),%rdx
  4011cb:	48 89 d7             	mov    %rdx,%rdi
  4011ce:	f3 48 ab             	rep stos %rax,%es:(%rdi)
  4011d1:	48 8b 3d d8 43 00 00 	mov    0x43d8(%rip),%rdi        # 4055b0 <.refptr.mingw_app_type>
  4011d8:	44 8b 0f             	mov    (%rdi),%r9d
  4011db:	45 85 c9             	test   %r9d,%r9d
  4011de:	0f 85 bc 02 00 00    	jne    4014a0 <__tmainCRTStartup+0x2f0>
  4011e4:	65 48 8b 04 25 30 00 	mov    %gs:0x30,%rax
  4011eb:	00 00 
  4011ed:	48 8b 1d bc 42 00 00 	mov    0x42bc(%rip),%rbx        # 4054b0 <.refptr.__native_startup_lock>
  4011f4:	48 8b 70 08          	mov    0x8(%rax),%rsi
  4011f8:	31 ed                	xor    %ebp,%ebp
  4011fa:	4c 8b 25 53 81 00 00 	mov    0x8153(%rip),%r12        # 409354 <__imp_Sleep>
  401201:	eb 11                	jmp    401214 <__tmainCRTStartup+0x64>
  401203:	48 39 c6             	cmp    %rax,%rsi
  401206:	0f 84 34 02 00 00    	je     401440 <__tmainCRTStartup+0x290>
  40120c:	b9 e8 03 00 00       	mov    $0x3e8,%ecx
  401211:	41 ff d4             	callq  *%r12
  401214:	48 89 e8             	mov    %rbp,%rax
  401217:	f0 48 0f b1 33       	lock cmpxchg %rsi,(%rbx)
  40121c:	48 85 c0             	test   %rax,%rax
  40121f:	75 e2                	jne    401203 <__tmainCRTStartup+0x53>
  401221:	48 8b 35 98 42 00 00 	mov    0x4298(%rip),%rsi        # 4054c0 <.refptr.__native_startup_state>
  401228:	31 ed                	xor    %ebp,%ebp
  40122a:	8b 06                	mov    (%rsi),%eax
  40122c:	83 f8 01             	cmp    $0x1,%eax
  40122f:	0f 84 22 02 00 00    	je     401457 <__tmainCRTStartup+0x2a7>
  401235:	8b 06                	mov    (%rsi),%eax
  401237:	85 c0                	test   %eax,%eax
  401239:	0f 84 71 02 00 00    	je     4014b0 <__tmainCRTStartup+0x300>
  40123f:	c7 05 bb 6d 00 00 01 	movl   $0x1,0x6dbb(%rip)        # 408004 <has_cctor>
  401246:	00 00 00 
  401249:	8b 06                	mov    (%rsi),%eax
  40124b:	83 f8 01             	cmp    $0x1,%eax
  40124e:	0f 84 18 02 00 00    	je     40146c <__tmainCRTStartup+0x2bc>
  401254:	85 ed                	test   %ebp,%ebp
  401256:	0f 84 31 02 00 00    	je     40148d <__tmainCRTStartup+0x2dd>
  40125c:	48 8b 05 cd 41 00 00 	mov    0x41cd(%rip),%rax        # 405430 <.refptr.__dyn_tls_init_callback>
  401263:	48 8b 00             	mov    (%rax),%rax
  401266:	48 85 c0             	test   %rax,%rax
  401269:	74 0c                	je     401277 <__tmainCRTStartup+0xc7>
  40126b:	45 31 c0             	xor    %r8d,%r8d
  40126e:	ba 02 00 00 00       	mov    $0x2,%edx
  401273:	31 c9                	xor    %ecx,%ecx
  401275:	ff d0                	callq  *%rax
  401277:	e8 34 11 00 00       	callq  4023b0 <_pei386_runtime_relocator>
  40127c:	48 8d 0d ad 16 00 00 	lea    0x16ad(%rip),%rcx        # 402930 <_gnu_exception_handler>
  401283:	ff 15 bb 80 00 00    	callq  *0x80bb(%rip)        # 409344 <__imp_SetUnhandledExceptionFilter>
  401289:	48 8b 15 10 42 00 00 	mov    0x4210(%rip),%rdx        # 4054a0 <.refptr.__mingw_oldexcpt_handler>
  401290:	48 89 02             	mov    %rax,(%rdx)
  401293:	e8 a8 15 00 00       	callq  402840 <__mingw_init_ehandler>
  401298:	48 8d 0d 61 fd ff ff 	lea    -0x29f(%rip),%rcx        # 401000 <__mingw_invalidParameterHandler>
  40129f:	e8 4c 20 00 00       	callq  4032f0 <_set_invalid_parameter_handler>
  4012a4:	e8 07 0f 00 00       	callq  4021b0 <_fpreset>
  4012a9:	48 8b 05 a0 41 00 00 	mov    0x41a0(%rip),%rax        # 405450 <.refptr.__image_base__>
  4012b0:	31 c9                	xor    %ecx,%ecx
  4012b2:	48 89 05 0f 77 00 00 	mov    %rax,0x770f(%rip)        # 4089c8 <__mingw_winmain_hInstance>
  4012b9:	48 8b 05 b0 41 00 00 	mov    0x41b0(%rip),%rax        # 405470 <.refptr.__imp__acmdln>
  4012c0:	48 8b 00             	mov    (%rax),%rax
  4012c3:	48 8b 00             	mov    (%rax),%rax
  4012c6:	48 85 c0             	test   %rax,%rax
  4012c9:	75 17                	jne    4012e2 <__tmainCRTStartup+0x132>
  4012cb:	eb 5a                	jmp    401327 <__tmainCRTStartup+0x177>
  4012cd:	0f 1f 00             	nopl   (%rax)
  4012d0:	84 d2                	test   %dl,%dl
  4012d2:	74 2c                	je     401300 <__tmainCRTStartup+0x150>
  4012d4:	83 e1 01             	and    $0x1,%ecx
  4012d7:	74 27                	je     401300 <__tmainCRTStartup+0x150>
  4012d9:	b9 01 00 00 00       	mov    $0x1,%ecx
  4012de:	48 83 c0 01          	add    $0x1,%rax
  4012e2:	0f b6 10             	movzbl (%rax),%edx
  4012e5:	80 fa 20             	cmp    $0x20,%dl
  4012e8:	7e e6                	jle    4012d0 <__tmainCRTStartup+0x120>
  4012ea:	41 89 c8             	mov    %ecx,%r8d
  4012ed:	41 83 f0 01          	xor    $0x1,%r8d
  4012f1:	80 fa 22             	cmp    $0x22,%dl
  4012f4:	41 0f 44 c8          	cmove  %r8d,%ecx
  4012f8:	eb e4                	jmp    4012de <__tmainCRTStartup+0x12e>
  4012fa:	66 0f 1f 44 00 00    	nopw   0x0(%rax,%rax,1)
  401300:	84 d2                	test   %dl,%dl
  401302:	75 11                	jne    401315 <__tmainCRTStartup+0x165>
  401304:	eb 1a                	jmp    401320 <__tmainCRTStartup+0x170>
  401306:	66 2e 0f 1f 84 00 00 	nopw   %cs:0x0(%rax,%rax,1)
  40130d:	00 00 00 
  401310:	80 fa 20             	cmp    $0x20,%dl
  401313:	7f 0b                	jg     401320 <__tmainCRTStartup+0x170>
  401315:	48 83 c0 01          	add    $0x1,%rax
  401319:	0f b6 10             	movzbl (%rax),%edx
  40131c:	84 d2                	test   %dl,%dl
  40131e:	75 f0                	jne    401310 <__tmainCRTStartup+0x160>
  401320:	48 89 05 99 76 00 00 	mov    %rax,0x7699(%rip)        # 4089c0 <__mingw_winmain_lpCmdLine>
  401327:	44 8b 07             	mov    (%rdi),%r8d
  40132a:	45 85 c0             	test   %r8d,%r8d
  40132d:	74 16                	je     401345 <__tmainCRTStartup+0x195>
  40132f:	b8 0a 00 00 00       	mov    $0xa,%eax
  401334:	f6 44 24 5c 01       	testb  $0x1,0x5c(%rsp)
  401339:	0f 85 f1 00 00 00    	jne    401430 <__tmainCRTStartup+0x280>
  40133f:	89 05 bb 2c 00 00    	mov    %eax,0x2cbb(%rip)        # 404000 <__data_start__>
  401345:	8b 1d d5 6c 00 00    	mov    0x6cd5(%rip),%ebx        # 408020 <argc>
  40134b:	44 8d 63 01          	lea    0x1(%rbx),%r12d
  40134f:	4d 63 e4             	movslq %r12d,%r12
  401352:	49 c1 e4 03          	shl    $0x3,%r12
  401356:	4c 89 e1             	mov    %r12,%rcx
  401359:	e8 e2 1e 00 00       	callq  403240 <malloc>
  40135e:	48 8b 3d b3 6c 00 00 	mov    0x6cb3(%rip),%rdi        # 408018 <argv>
  401365:	48 89 c5             	mov    %rax,%rbp
  401368:	85 db                	test   %ebx,%ebx
  40136a:	7e 4b                	jle    4013b7 <__tmainCRTStartup+0x207>
  40136c:	8d 43 ff             	lea    -0x1(%rbx),%eax
  40136f:	31 db                	xor    %ebx,%ebx
  401371:	4c 8d 2c c5 08 00 00 	lea    0x8(,%rax,8),%r13
  401378:	00 
  401379:	0f 1f 80 00 00 00 00 	nopl   0x0(%rax)
  401380:	48 8b 0c 1f          	mov    (%rdi,%rbx,1),%rcx
  401384:	e8 87 1e 00 00       	callq  403210 <strlen>
  401389:	48 8d 70 01          	lea    0x1(%rax),%rsi
  40138d:	48 89 f1             	mov    %rsi,%rcx
  401390:	e8 ab 1e 00 00       	callq  403240 <malloc>
  401395:	49 89 f0             	mov    %rsi,%r8
  401398:	48 89 44 1d 00       	mov    %rax,0x0(%rbp,%rbx,1)
  40139d:	48 8b 14 1f          	mov    (%rdi,%rbx,1),%rdx
  4013a1:	48 89 c1             	mov    %rax,%rcx
  4013a4:	48 83 c3 08          	add    $0x8,%rbx
  4013a8:	e8 8b 1e 00 00       	callq  403238 <memcpy>
  4013ad:	49 39 dd             	cmp    %rbx,%r13
  4013b0:	75 ce                	jne    401380 <__tmainCRTStartup+0x1d0>
  4013b2:	4a 8d 44 25 f8       	lea    -0x8(%rbp,%r12,1),%rax
  4013b7:	48 c7 00 00 00 00 00 	movq   $0x0,(%rax)
  4013be:	48 89 2d 53 6c 00 00 	mov    %rbp,0x6c53(%rip)        # 408018 <argv>
  4013c5:	e8 56 09 00 00       	callq  401d20 <__main>
  4013ca:	48 8b 05 8f 40 00 00 	mov    0x408f(%rip),%rax        # 405460 <.refptr.__imp___initenv>
  4013d1:	48 8b 15 38 6c 00 00 	mov    0x6c38(%rip),%rdx        # 408010 <envp>
  4013d8:	8b 0d 42 6c 00 00    	mov    0x6c42(%rip),%ecx        # 408020 <argc>
  4013de:	48 8b 00             	mov    (%rax),%rax
  4013e1:	48 89 10             	mov    %rdx,(%rax)
  4013e4:	4c 8b 05 25 6c 00 00 	mov    0x6c25(%rip),%r8        # 408010 <envp>
  4013eb:	48 8b 15 26 6c 00 00 	mov    0x6c26(%rip),%rdx        # 408018 <argv>
  4013f2:	e8 37 02 00 00       	callq  40162e <main>
  4013f7:	8b 0d 0b 6c 00 00    	mov    0x6c0b(%rip),%ecx        # 408008 <managedapp>
  4013fd:	89 05 09 6c 00 00    	mov    %eax,0x6c09(%rip)        # 40800c <mainret>
  401403:	85 c9                	test   %ecx,%ecx
  401405:	0f 84 c3 00 00 00    	je     4014ce <__tmainCRTStartup+0x31e>
  40140b:	8b 15 f3 6b 00 00    	mov    0x6bf3(%rip),%edx        # 408004 <has_cctor>
  401411:	85 d2                	test   %edx,%edx
  401413:	75 0b                	jne    401420 <__tmainCRTStartup+0x270>
  401415:	e8 7e 1e 00 00       	callq  403298 <_cexit>
  40141a:	8b 05 ec 6b 00 00    	mov    0x6bec(%rip),%eax        # 40800c <mainret>
  401420:	48 81 c4 98 00 00 00 	add    $0x98,%rsp
  401427:	5b                   	pop    %rbx
  401428:	5e                   	pop    %rsi
  401429:	5f                   	pop    %rdi
  40142a:	5d                   	pop    %rbp
  40142b:	41 5c                	pop    %r12
  40142d:	41 5d                	pop    %r13
  40142f:	c3                   	retq   
  401430:	0f b7 44 24 60       	movzwl 0x60(%rsp),%eax
  401435:	e9 05 ff ff ff       	jmpq   40133f <__tmainCRTStartup+0x18f>
  40143a:	66 0f 1f 44 00 00    	nopw   0x0(%rax,%rax,1)
  401440:	48 8b 35 79 40 00 00 	mov    0x4079(%rip),%rsi        # 4054c0 <.refptr.__native_startup_state>
  401447:	bd 01 00 00 00       	mov    $0x1,%ebp
  40144c:	8b 06                	mov    (%rsi),%eax
  40144e:	83 f8 01             	cmp    $0x1,%eax
  401451:	0f 85 de fd ff ff    	jne    401235 <__tmainCRTStartup+0x85>
  401457:	b9 1f 00 00 00       	mov    $0x1f,%ecx
  40145c:	e8 3f 1e 00 00       	callq  4032a0 <_amsg_exit>
  401461:	8b 06                	mov    (%rsi),%eax
  401463:	83 f8 01             	cmp    $0x1,%eax
  401466:	0f 85 e8 fd ff ff    	jne    401254 <__tmainCRTStartup+0xa4>
  40146c:	48 8b 15 8d 40 00 00 	mov    0x408d(%rip),%rdx        # 405500 <.refptr.__xc_z>
  401473:	48 8b 0d 76 40 00 00 	mov    0x4076(%rip),%rcx        # 4054f0 <.refptr.__xc_a>
  40147a:	e8 11 1e 00 00       	callq  403290 <_initterm>
  40147f:	c7 06 02 00 00 00    	movl   $0x2,(%rsi)
  401485:	85 ed                	test   %ebp,%ebp
  401487:	0f 85 cf fd ff ff    	jne    40125c <__tmainCRTStartup+0xac>
  40148d:	31 c0                	xor    %eax,%eax
  40148f:	48 87 03             	xchg   %rax,(%rbx)
  401492:	e9 c5 fd ff ff       	jmpq   40125c <__tmainCRTStartup+0xac>
  401497:	66 0f 1f 84 00 00 00 	nopw   0x0(%rax,%rax,1)
  40149e:	00 00 
  4014a0:	48 89 d1             	mov    %rdx,%rcx
  4014a3:	ff 15 33 7e 00 00    	callq  *0x7e33(%rip)        # 4092dc <__imp_GetStartupInfoA>
  4014a9:	e9 36 fd ff ff       	jmpq   4011e4 <__tmainCRTStartup+0x34>
  4014ae:	66 90                	xchg   %ax,%ax
  4014b0:	48 8b 15 69 40 00 00 	mov    0x4069(%rip),%rdx        # 405520 <.refptr.__xi_z>
  4014b7:	48 8b 0d 52 40 00 00 	mov    0x4052(%rip),%rcx        # 405510 <.refptr.__xi_a>
  4014be:	c7 06 01 00 00 00    	movl   $0x1,(%rsi)
  4014c4:	e8 c7 1d 00 00       	callq  403290 <_initterm>
  4014c9:	e9 7b fd ff ff       	jmpq   401249 <__tmainCRTStartup+0x99>
  4014ce:	89 c1                	mov    %eax,%ecx
  4014d0:	e8 8b 1d 00 00       	callq  403260 <exit>
  4014d5:	90                   	nop
  4014d6:	66 2e 0f 1f 84 00 00 	nopw   %cs:0x0(%rax,%rax,1)
  4014dd:	00 00 00 

00000000004014e0 <WinMainCRTStartup>:
  4014e0:	48 83 ec 28          	sub    $0x28,%rsp

00000000004014e4 <.l_startw>:
  4014e4:	48 8b 05 c5 40 00 00 	mov    0x40c5(%rip),%rax        # 4055b0 <.refptr.mingw_app_type>
  4014eb:	c7 00 01 00 00 00    	movl   $0x1,(%rax)
  4014f1:	e8 da 08 00 00       	callq  401dd0 <__security_init_cookie>
  4014f6:	e8 b5 fc ff ff       	callq  4011b0 <__tmainCRTStartup>
  4014fb:	90                   	nop

00000000004014fc <.l_endw>:
  4014fc:	90                   	nop
  4014fd:	48 83 c4 28          	add    $0x28,%rsp
  401501:	c3                   	retq   
  401502:	0f 1f 40 00          	nopl   0x0(%rax)
  401506:	66 2e 0f 1f 84 00 00 	nopw   %cs:0x0(%rax,%rax,1)
  40150d:	00 00 00 

0000000000401510 <mainCRTStartup>:
  401510:	48 83 ec 28          	sub    $0x28,%rsp

0000000000401514 <.l_start>:
  401514:	48 8b 05 95 40 00 00 	mov    0x4095(%rip),%rax        # 4055b0 <.refptr.mingw_app_type>
  40151b:	c7 00 00 00 00 00    	movl   $0x0,(%rax)
  401521:	e8 aa 08 00 00       	callq  401dd0 <__security_init_cookie>
  401526:	e8 85 fc ff ff       	callq  4011b0 <__tmainCRTStartup>
  40152b:	90                   	nop

000000000040152c <.l_end>:
  40152c:	90                   	nop
  40152d:	48 83 c4 28          	add    $0x28,%rsp
  401531:	c3                   	retq   
  401532:	90                   	nop
  401533:	90                   	nop
  401534:	90                   	nop
  401535:	90                   	nop
  401536:	90                   	nop
  401537:	90                   	nop
  401538:	90                   	nop
  401539:	90                   	nop
  40153a:	90                   	nop
  40153b:	90                   	nop
  40153c:	90                   	nop
  40153d:	90                   	nop
  40153e:	90                   	nop
  40153f:	90                   	nop

0000000000401540 <__gcc_register_frame>:
  401540:	55                   	push   %rbp
  401541:	48 89 e5             	mov    %rsp,%rbp
  401544:	48 8d 0d 15 00 00 00 	lea    0x15(%rip),%rcx        # 401560 <__gcc_deregister_frame>
  40154b:	5d                   	pop    %rbp
  40154c:	e9 5f 06 00 00       	jmpq   401bb0 <atexit>
  401551:	0f 1f 44 00 00       	nopl   0x0(%rax,%rax,1)
  401556:	66 2e 0f 1f 84 00 00 	nopw   %cs:0x0(%rax,%rax,1)
  40155d:	00 00 00 

0000000000401560 <__gcc_deregister_frame>:
  401560:	55                   	push   %rbp
  401561:	48 89 e5             	mov    %rsp,%rbp
  401564:	5d                   	pop    %rbp
  401565:	c3                   	retq   
  401566:	90                   	nop
  401567:	90                   	nop
  401568:	90                   	nop
  401569:	90                   	nop
  40156a:	90                   	nop
  40156b:	90                   	nop
  40156c:	90                   	nop
  40156d:	90                   	nop
  40156e:	90                   	nop
  40156f:	90                   	nop

0000000000401570 <getNextNumber>:
  401570:	e8 70 21 00 00       	callq  4036e5 <__fentry__>
  401575:	55                   	push   %rbp
  401576:	48 89 e5             	mov    %rsp,%rbp
  401579:	48 83 ec 20          	sub    $0x20,%rsp
  40157d:	e8 a6 1c 00 00       	callq  403228 <rand>
  401582:	41 89 c0             	mov    %eax,%r8d
  401585:	48 8d 05 44 74 00 00 	lea    0x7444(%rip),%rax        # 4089d0 <high>
  40158c:	8b 10                	mov    (%rax),%edx
  40158e:	48 8d 05 3f 74 00 00 	lea    0x743f(%rip),%rax        # 4089d4 <low>
  401595:	8b 00                	mov    (%rax),%eax
  401597:	29 c2                	sub    %eax,%edx
  401599:	89 d0                	mov    %edx,%eax
  40159b:	8d 48 01             	lea    0x1(%rax),%ecx
  40159e:	44 89 c0             	mov    %r8d,%eax
  4015a1:	99                   	cltd   
  4015a2:	f7 f9                	idiv   %ecx
  4015a4:	48 8d 05 29 74 00 00 	lea    0x7429(%rip),%rax        # 4089d4 <low>
  4015ab:	8b 00                	mov    (%rax),%eax
  4015ad:	01 d0                	add    %edx,%eax
  4015af:	48 83 c4 20          	add    $0x20,%rsp
  4015b3:	5d                   	pop    %rbp
  4015b4:	c3                   	retq   

00000000004015b5 <obtainNumberBetween>:
  4015b5:	e8 2b 21 00 00       	callq  4036e5 <__fentry__>
  4015ba:	55                   	push   %rbp
  4015bb:	48 89 e5             	mov    %rsp,%rbp
  4015be:	48 83 ec 30          	sub    $0x30,%rsp
  4015c2:	48 89 4d 10          	mov    %rcx,0x10(%rbp)
  4015c6:	89 55 18             	mov    %edx,0x18(%rbp)
  4015c9:	44 89 45 20          	mov    %r8d,0x20(%rbp)
  4015cd:	8b 55 20             	mov    0x20(%rbp),%edx
  4015d0:	8b 45 18             	mov    0x18(%rbp),%eax
  4015d3:	41 89 d1             	mov    %edx,%r9d
  4015d6:	41 89 c0             	mov    %eax,%r8d
  4015d9:	48 8b 55 10          	mov    0x10(%rbp),%rdx
  4015dd:	48 8d 0d 1c 3a 00 00 	lea    0x3a1c(%rip),%rcx        # 405000 <.rdata>
  4015e4:	e8 47 1c 00 00       	callq  403230 <printf>
  4015e9:	48 8d 45 f8          	lea    -0x8(%rbp),%rax
  4015ed:	48 89 c2             	mov    %rax,%rdx
  4015f0:	48 8d 0d 25 3a 00 00 	lea    0x3a25(%rip),%rcx        # 40501c <.rdata+0x1c>
  4015f7:	e8 24 1c 00 00       	callq  403220 <scanf>
  4015fc:	89 45 fc             	mov    %eax,-0x4(%rbp)
  4015ff:	8b 45 f8             	mov    -0x8(%rbp),%eax
  401602:	39 45 18             	cmp    %eax,0x18(%rbp)
  401605:	7f 0d                	jg     401614 <obtainNumberBetween+0x5f>
  401607:	8b 45 f8             	mov    -0x8(%rbp),%eax
  40160a:	39 45 20             	cmp    %eax,0x20(%rbp)
  40160d:	7c 05                	jl     401614 <obtainNumberBetween+0x5f>
  40160f:	8b 45 f8             	mov    -0x8(%rbp),%eax
  401612:	eb 14                	jmp    401628 <obtainNumberBetween+0x73>
  401614:	8b 55 20             	mov    0x20(%rbp),%edx
  401617:	8b 45 18             	mov    0x18(%rbp),%eax
  40161a:	41 89 d0             	mov    %edx,%r8d
  40161d:	89 c2                	mov    %eax,%edx
  40161f:	48 8b 4d 10          	mov    0x10(%rbp),%rcx
  401623:	e8 8d ff ff ff       	callq  4015b5 <obtainNumberBetween>
  401628:	48 83 c4 30          	add    $0x30,%rsp
  40162c:	5d                   	pop    %rbp
  40162d:	c3                   	retq   

000000000040162e <main>:
  40162e:	e8 b2 20 00 00       	callq  4036e5 <__fentry__>
  401633:	55                   	push   %rbp
  401634:	48 89 e5             	mov    %rsp,%rbp
  401637:	48 83 ec 50          	sub    $0x50,%rsp
  40163b:	e8 c0 28 00 00       	callq  403f00 <_monstartup>
  401640:	e8 db 06 00 00       	callq  401d20 <__main>
  401645:	48 8d 05 d4 39 00 00 	lea    0x39d4(%rip),%rax        # 405020 <.rdata+0x20>
  40164c:	48 89 45 f0          	mov    %rax,-0x10(%rbp)
  401650:	48 8b 45 f0          	mov    -0x10(%rbp),%rax
  401654:	41 b8 ff 7f 00 00    	mov    $0x7fff,%r8d
  40165a:	ba 00 00 00 00       	mov    $0x0,%edx
  40165f:	48 89 c1             	mov    %rax,%rcx
  401662:	e8 4e ff ff ff       	callq  4015b5 <obtainNumberBetween>
  401667:	89 c2                	mov    %eax,%edx
  401669:	48 8d 05 64 73 00 00 	lea    0x7364(%rip),%rax        # 4089d4 <low>
  401670:	89 10                	mov    %edx,(%rax)
  401672:	48 8d 05 cf 39 00 00 	lea    0x39cf(%rip),%rax        # 405048 <.rdata+0x48>
  401679:	48 89 45 e8          	mov    %rax,-0x18(%rbp)
  40167d:	48 8d 05 50 73 00 00 	lea    0x7350(%rip),%rax        # 4089d4 <low>
  401684:	8b 10                	mov    (%rax),%edx
  401686:	48 8b 45 e8          	mov    -0x18(%rbp),%rax
  40168a:	41 b8 ff 7f 00 00    	mov    $0x7fff,%r8d
  401690:	48 89 c1             	mov    %rax,%rcx
  401693:	e8 1d ff ff ff       	callq  4015b5 <obtainNumberBetween>
  401698:	89 c2                	mov    %eax,%edx
  40169a:	48 8d 05 2f 73 00 00 	lea    0x732f(%rip),%rax        # 4089d0 <high>
  4016a1:	89 10                	mov    %edx,(%rax)
  4016a3:	48 8d 05 c6 39 00 00 	lea    0x39c6(%rip),%rax        # 405070 <.rdata+0x70>
  4016aa:	48 89 45 e0          	mov    %rax,-0x20(%rbp)
  4016ae:	48 8b 45 e0          	mov    -0x20(%rbp),%rax
  4016b2:	41 b8 00 00 00 40    	mov    $0x40000000,%r8d
  4016b8:	ba 00 00 00 00       	mov    $0x0,%edx
  4016bd:	48 89 c1             	mov    %rax,%rcx
  4016c0:	e8 f0 fe ff ff       	callq  4015b5 <obtainNumberBetween>
  4016c5:	89 45 dc             	mov    %eax,-0x24(%rbp)
  4016c8:	48 8d 05 c9 39 00 00 	lea    0x39c9(%rip),%rax        # 405098 <.rdata+0x98>
  4016cf:	48 89 45 d0          	mov    %rax,-0x30(%rbp)
  4016d3:	c7 45 fc 01 00 00 00 	movl   $0x1,-0x4(%rbp)
  4016da:	eb 3c                	jmp    401718 <main+0xea>
  4016dc:	48 8b 45 d0          	mov    -0x30(%rbp),%rax
  4016e0:	41 b8 02 00 00 00    	mov    $0x2,%r8d
  4016e6:	ba 00 00 00 00       	mov    $0x0,%edx
  4016eb:	48 89 c1             	mov    %rax,%rcx
  4016ee:	e8 c2 fe ff ff       	callq  4015b5 <obtainNumberBetween>
  4016f3:	89 45 fc             	mov    %eax,-0x4(%rbp)
  4016f6:	83 7d fc 01          	cmpl   $0x1,-0x4(%rbp)
  4016fa:	75 0c                	jne    401708 <main+0xda>
  4016fc:	8b 45 dc             	mov    -0x24(%rbp),%eax
  4016ff:	89 c1                	mov    %eax,%ecx
  401701:	e8 a6 03 00 00       	callq  401aac <countWithList>
  401706:	eb 10                	jmp    401718 <main+0xea>
  401708:	83 7d fc 02          	cmpl   $0x2,-0x4(%rbp)
  40170c:	75 0a                	jne    401718 <main+0xea>
  40170e:	8b 45 dc             	mov    -0x24(%rbp),%eax
  401711:	89 c1                	mov    %eax,%ecx
  401713:	e8 de 01 00 00       	callq  4018f6 <countWithTree>
  401718:	83 7d fc 00          	cmpl   $0x0,-0x4(%rbp)
  40171c:	75 be                	jne    4016dc <main+0xae>
  40171e:	b8 00 00 00 00       	mov    $0x0,%eax
  401723:	48 83 c4 50          	add    $0x50,%rsp
  401727:	5d                   	pop    %rbp
  401728:	c3                   	retq   
  401729:	90                   	nop
  40172a:	90                   	nop
  40172b:	90                   	nop
  40172c:	90                   	nop
  40172d:	90                   	nop
  40172e:	90                   	nop
  40172f:	90                   	nop

0000000000401730 <generateTree>:
  401730:	e8 b0 1f 00 00       	callq  4036e5 <__fentry__>
  401735:	55                   	push   %rbp
  401736:	48 89 e5             	mov    %rsp,%rbp
  401739:	48 83 ec 50          	sub    $0x50,%rsp
  40173d:	89 4d 10             	mov    %ecx,0x10(%rbp)
  401740:	48 c7 45 f8 00 00 00 	movq   $0x0,-0x8(%rbp)
  401747:	00 
  401748:	c7 45 e4 00 00 00 00 	movl   $0x0,-0x1c(%rbp)
  40174f:	e9 e7 00 00 00       	jmpq   40183b <generateTree+0x10b>
  401754:	e8 17 fe ff ff       	callq  401570 <getNextNumber>
  401759:	89 45 e0             	mov    %eax,-0x20(%rbp)
  40175c:	48 c7 45 f0 00 00 00 	movq   $0x0,-0x10(%rbp)
  401763:	00 
  401764:	48 8b 45 f8          	mov    -0x8(%rbp),%rax
  401768:	48 89 45 e8          	mov    %rax,-0x18(%rbp)
  40176c:	eb 4b                	jmp    4017b9 <generateTree+0x89>
  40176e:	48 8b 45 e8          	mov    -0x18(%rbp),%rax
  401772:	8b 00                	mov    (%rax),%eax
  401774:	39 45 e0             	cmp    %eax,-0x20(%rbp)
  401777:	75 13                	jne    40178c <generateTree+0x5c>
  401779:	48 8b 45 e8          	mov    -0x18(%rbp),%rax
  40177d:	8b 40 04             	mov    0x4(%rax),%eax
  401780:	8d 50 01             	lea    0x1(%rax),%edx
  401783:	48 8b 45 e8          	mov    -0x18(%rbp),%rax
  401787:	89 50 04             	mov    %edx,0x4(%rax)
  40178a:	eb 34                	jmp    4017c0 <generateTree+0x90>
  40178c:	48 8b 45 e8          	mov    -0x18(%rbp),%rax
  401790:	48 89 45 f0          	mov    %rax,-0x10(%rbp)
  401794:	48 8b 45 e8          	mov    -0x18(%rbp),%rax
  401798:	8b 00                	mov    (%rax),%eax
  40179a:	39 45 e0             	cmp    %eax,-0x20(%rbp)
  40179d:	7d 0e                	jge    4017ad <generateTree+0x7d>
  40179f:	48 8b 45 e8          	mov    -0x18(%rbp),%rax
  4017a3:	48 8b 40 08          	mov    0x8(%rax),%rax
  4017a7:	48 89 45 e8          	mov    %rax,-0x18(%rbp)
  4017ab:	eb 0c                	jmp    4017b9 <generateTree+0x89>
  4017ad:	48 8b 45 e8          	mov    -0x18(%rbp),%rax
  4017b1:	48 8b 40 10          	mov    0x10(%rax),%rax
  4017b5:	48 89 45 e8          	mov    %rax,-0x18(%rbp)
  4017b9:	48 83 7d e8 00       	cmpq   $0x0,-0x18(%rbp)
  4017be:	75 ae                	jne    40176e <generateTree+0x3e>
  4017c0:	48 83 7d e8 00       	cmpq   $0x0,-0x18(%rbp)
  4017c5:	75 70                	jne    401837 <generateTree+0x107>
  4017c7:	b9 18 00 00 00       	mov    $0x18,%ecx
  4017cc:	e8 6f 1a 00 00       	callq  403240 <malloc>
  4017d1:	48 89 45 d8          	mov    %rax,-0x28(%rbp)
  4017d5:	48 8b 45 d8          	mov    -0x28(%rbp),%rax
  4017d9:	8b 55 e0             	mov    -0x20(%rbp),%edx
  4017dc:	89 10                	mov    %edx,(%rax)
  4017de:	48 8b 45 d8          	mov    -0x28(%rbp),%rax
  4017e2:	c7 40 04 01 00 00 00 	movl   $0x1,0x4(%rax)
  4017e9:	48 8b 45 d8          	mov    -0x28(%rbp),%rax
  4017ed:	48 c7 40 08 00 00 00 	movq   $0x0,0x8(%rax)
  4017f4:	00 
  4017f5:	48 8b 45 d8          	mov    -0x28(%rbp),%rax
  4017f9:	48 c7 40 10 00 00 00 	movq   $0x0,0x10(%rax)
  401800:	00 
  401801:	48 83 7d f0 00       	cmpq   $0x0,-0x10(%rbp)
  401806:	75 0a                	jne    401812 <generateTree+0xe2>
  401808:	48 8b 45 d8          	mov    -0x28(%rbp),%rax
  40180c:	48 89 45 f8          	mov    %rax,-0x8(%rbp)
  401810:	eb 25                	jmp    401837 <generateTree+0x107>
  401812:	48 8b 45 f0          	mov    -0x10(%rbp),%rax
  401816:	8b 00                	mov    (%rax),%eax
  401818:	39 45 e0             	cmp    %eax,-0x20(%rbp)
  40181b:	7d 0e                	jge    40182b <generateTree+0xfb>
  40181d:	48 8b 45 f0          	mov    -0x10(%rbp),%rax
  401821:	48 8b 55 d8          	mov    -0x28(%rbp),%rdx
  401825:	48 89 50 08          	mov    %rdx,0x8(%rax)
  401829:	eb 0c                	jmp    401837 <generateTree+0x107>
  40182b:	48 8b 45 f0          	mov    -0x10(%rbp),%rax
  40182f:	48 8b 55 d8          	mov    -0x28(%rbp),%rdx
  401833:	48 89 50 10          	mov    %rdx,0x10(%rax)
  401837:	83 45 e4 01          	addl   $0x1,-0x1c(%rbp)
  40183b:	8b 45 e4             	mov    -0x1c(%rbp),%eax
  40183e:	3b 45 10             	cmp    0x10(%rbp),%eax
  401841:	0f 8c 0d ff ff ff    	jl     401754 <generateTree+0x24>
  401847:	48 8b 45 f8          	mov    -0x8(%rbp),%rax
  40184b:	48 83 c4 50          	add    $0x50,%rsp
  40184f:	5d                   	pop    %rbp
  401850:	c3                   	retq   

0000000000401851 <printTree>:
  401851:	e8 8f 1e 00 00       	callq  4036e5 <__fentry__>
  401856:	55                   	push   %rbp
  401857:	48 89 e5             	mov    %rsp,%rbp
  40185a:	48 83 ec 20          	sub    $0x20,%rsp
  40185e:	48 89 4d 10          	mov    %rcx,0x10(%rbp)
  401862:	48 83 7d 10 00       	cmpq   $0x0,0x10(%rbp)
  401867:	74 3e                	je     4018a7 <printTree+0x56>
  401869:	48 8b 45 10          	mov    0x10(%rbp),%rax
  40186d:	48 8b 40 08          	mov    0x8(%rax),%rax
  401871:	48 89 c1             	mov    %rax,%rcx
  401874:	e8 d8 ff ff ff       	callq  401851 <printTree>
  401879:	48 8b 45 10          	mov    0x10(%rbp),%rax
  40187d:	8b 50 04             	mov    0x4(%rax),%edx
  401880:	48 8b 45 10          	mov    0x10(%rbp),%rax
  401884:	8b 00                	mov    (%rax),%eax
  401886:	41 89 d0             	mov    %edx,%r8d
  401889:	89 c2                	mov    %eax,%edx
  40188b:	48 8d 0d 6e 38 00 00 	lea    0x386e(%rip),%rcx        # 405100 <.rdata>
  401892:	e8 99 19 00 00       	callq  403230 <printf>
  401897:	48 8b 45 10          	mov    0x10(%rbp),%rax
  40189b:	48 8b 40 10          	mov    0x10(%rax),%rax
  40189f:	48 89 c1             	mov    %rax,%rcx
  4018a2:	e8 aa ff ff ff       	callq  401851 <printTree>
  4018a7:	90                   	nop
  4018a8:	48 83 c4 20          	add    $0x20,%rsp
  4018ac:	5d                   	pop    %rbp
  4018ad:	c3                   	retq   

00000000004018ae <freeTree>:
  4018ae:	e8 32 1e 00 00       	callq  4036e5 <__fentry__>
  4018b3:	55                   	push   %rbp
  4018b4:	48 89 e5             	mov    %rsp,%rbp
  4018b7:	48 83 ec 20          	sub    $0x20,%rsp
  4018bb:	48 89 4d 10          	mov    %rcx,0x10(%rbp)
  4018bf:	48 83 7d 10 00       	cmpq   $0x0,0x10(%rbp)
  4018c4:	74 29                	je     4018ef <freeTree+0x41>
  4018c6:	48 8b 45 10          	mov    0x10(%rbp),%rax
  4018ca:	48 8b 40 08          	mov    0x8(%rax),%rax
  4018ce:	48 89 c1             	mov    %rax,%rcx
  4018d1:	e8 d8 ff ff ff       	callq  4018ae <freeTree>
  4018d6:	48 8b 45 10          	mov    0x10(%rbp),%rax
  4018da:	48 8b 40 10          	mov    0x10(%rax),%rax
  4018de:	48 89 c1             	mov    %rax,%rcx
  4018e1:	e8 c8 ff ff ff       	callq  4018ae <freeTree>
  4018e6:	48 8b 4d 10          	mov    0x10(%rbp),%rcx
  4018ea:	e8 61 19 00 00       	callq  403250 <free>
  4018ef:	90                   	nop
  4018f0:	48 83 c4 20          	add    $0x20,%rsp
  4018f4:	5d                   	pop    %rbp
  4018f5:	c3                   	retq   

00000000004018f6 <countWithTree>:
  4018f6:	e8 ea 1d 00 00       	callq  4036e5 <__fentry__>
  4018fb:	55                   	push   %rbp
  4018fc:	48 89 e5             	mov    %rsp,%rbp
  4018ff:	48 83 ec 30          	sub    $0x30,%rsp
  401903:	89 4d 10             	mov    %ecx,0x10(%rbp)
  401906:	8b 4d 10             	mov    0x10(%rbp),%ecx
  401909:	e8 22 fe ff ff       	callq  401730 <generateTree>
  40190e:	48 89 45 f8          	mov    %rax,-0x8(%rbp)
  401912:	48 8b 45 f8          	mov    -0x8(%rbp),%rax
  401916:	48 89 c1             	mov    %rax,%rcx
  401919:	e8 33 ff ff ff       	callq  401851 <printTree>
  40191e:	48 8b 45 f8          	mov    -0x8(%rbp),%rax
  401922:	48 89 c1             	mov    %rax,%rcx
  401925:	e8 84 ff ff ff       	callq  4018ae <freeTree>
  40192a:	90                   	nop
  40192b:	48 83 c4 30          	add    $0x30,%rsp
  40192f:	5d                   	pop    %rbp
  401930:	c3                   	retq   
  401931:	90                   	nop
  401932:	90                   	nop
  401933:	90                   	nop
  401934:	90                   	nop
  401935:	90                   	nop
  401936:	90                   	nop
  401937:	90                   	nop
  401938:	90                   	nop
  401939:	90                   	nop
  40193a:	90                   	nop
  40193b:	90                   	nop
  40193c:	90                   	nop
  40193d:	90                   	nop
  40193e:	90                   	nop
  40193f:	90                   	nop

0000000000401940 <generateList>:
  401940:	e8 a0 1d 00 00       	callq  4036e5 <__fentry__>
  401945:	55                   	push   %rbp
  401946:	48 89 e5             	mov    %rsp,%rbp
  401949:	48 83 ec 50          	sub    $0x50,%rsp
  40194d:	89 4d 10             	mov    %ecx,0x10(%rbp)
  401950:	48 c7 45 f8 00 00 00 	movq   $0x0,-0x8(%rbp)
  401957:	00 
  401958:	c7 45 e4 00 00 00 00 	movl   $0x0,-0x1c(%rbp)
  40195f:	e9 a9 00 00 00       	jmpq   401a0d <generateList+0xcd>
  401964:	e8 07 fc ff ff       	callq  401570 <getNextNumber>
  401969:	89 45 e0             	mov    %eax,-0x20(%rbp)
  40196c:	48 c7 45 f0 00 00 00 	movq   $0x0,-0x10(%rbp)
  401973:	00 
  401974:	48 8b 45 f8          	mov    -0x8(%rbp),%rax
  401978:	48 89 45 e8          	mov    %rax,-0x18(%rbp)
  40197c:	eb 32                	jmp    4019b0 <generateList+0x70>
  40197e:	48 8b 45 e8          	mov    -0x18(%rbp),%rax
  401982:	8b 00                	mov    (%rax),%eax
  401984:	39 45 e0             	cmp    %eax,-0x20(%rbp)
  401987:	75 13                	jne    40199c <generateList+0x5c>
  401989:	48 8b 45 e8          	mov    -0x18(%rbp),%rax
  40198d:	8b 40 04             	mov    0x4(%rax),%eax
  401990:	8d 50 01             	lea    0x1(%rax),%edx
  401993:	48 8b 45 e8          	mov    -0x18(%rbp),%rax
  401997:	89 50 04             	mov    %edx,0x4(%rax)
  40199a:	eb 1b                	jmp    4019b7 <generateList+0x77>
  40199c:	48 8b 45 e8          	mov    -0x18(%rbp),%rax
  4019a0:	48 89 45 f0          	mov    %rax,-0x10(%rbp)
  4019a4:	48 8b 45 e8          	mov    -0x18(%rbp),%rax
  4019a8:	48 8b 40 08          	mov    0x8(%rax),%rax
  4019ac:	48 89 45 e8          	mov    %rax,-0x18(%rbp)
  4019b0:	48 83 7d e8 00       	cmpq   $0x0,-0x18(%rbp)
  4019b5:	75 c7                	jne    40197e <generateList+0x3e>
  4019b7:	48 83 7d e8 00       	cmpq   $0x0,-0x18(%rbp)
  4019bc:	75 4b                	jne    401a09 <generateList+0xc9>
  4019be:	b9 10 00 00 00       	mov    $0x10,%ecx
  4019c3:	e8 78 18 00 00       	callq  403240 <malloc>
  4019c8:	48 89 45 d8          	mov    %rax,-0x28(%rbp)
  4019cc:	48 8b 45 d8          	mov    -0x28(%rbp),%rax
  4019d0:	8b 55 e0             	mov    -0x20(%rbp),%edx
  4019d3:	89 10                	mov    %edx,(%rax)
  4019d5:	48 8b 45 d8          	mov    -0x28(%rbp),%rax
  4019d9:	c7 40 04 01 00 00 00 	movl   $0x1,0x4(%rax)
  4019e0:	48 8b 45 d8          	mov    -0x28(%rbp),%rax
  4019e4:	48 c7 40 08 00 00 00 	movq   $0x0,0x8(%rax)
  4019eb:	00 
  4019ec:	48 83 7d f0 00       	cmpq   $0x0,-0x10(%rbp)
  4019f1:	75 0a                	jne    4019fd <generateList+0xbd>
  4019f3:	48 8b 45 d8          	mov    -0x28(%rbp),%rax
  4019f7:	48 89 45 f8          	mov    %rax,-0x8(%rbp)
  4019fb:	eb 0c                	jmp    401a09 <generateList+0xc9>
  4019fd:	48 8b 45 f0          	mov    -0x10(%rbp),%rax
  401a01:	48 8b 55 d8          	mov    -0x28(%rbp),%rdx
  401a05:	48 89 50 08          	mov    %rdx,0x8(%rax)
  401a09:	83 45 e4 01          	addl   $0x1,-0x1c(%rbp)
  401a0d:	8b 45 e4             	mov    -0x1c(%rbp),%eax
  401a10:	3b 45 10             	cmp    0x10(%rbp),%eax
  401a13:	0f 8c 4b ff ff ff    	jl     401964 <generateList+0x24>
  401a19:	48 8b 45 f8          	mov    -0x8(%rbp),%rax
  401a1d:	48 83 c4 50          	add    $0x50,%rsp
  401a21:	5d                   	pop    %rbp
  401a22:	c3                   	retq   

0000000000401a23 <printList>:
  401a23:	e8 bd 1c 00 00       	callq  4036e5 <__fentry__>
  401a28:	55                   	push   %rbp
  401a29:	48 89 e5             	mov    %rsp,%rbp
  401a2c:	48 83 ec 20          	sub    $0x20,%rsp
  401a30:	48 89 4d 10          	mov    %rcx,0x10(%rbp)
  401a34:	eb 2a                	jmp    401a60 <printList+0x3d>
  401a36:	48 8b 45 10          	mov    0x10(%rbp),%rax
  401a3a:	8b 50 04             	mov    0x4(%rax),%edx
  401a3d:	48 8b 45 10          	mov    0x10(%rbp),%rax
  401a41:	8b 00                	mov    (%rax),%eax
  401a43:	41 89 d0             	mov    %edx,%r8d
  401a46:	89 c2                	mov    %eax,%edx
  401a48:	48 8d 0d c1 36 00 00 	lea    0x36c1(%rip),%rcx        # 405110 <.rdata>
  401a4f:	e8 dc 17 00 00       	callq  403230 <printf>
  401a54:	48 8b 45 10          	mov    0x10(%rbp),%rax
  401a58:	48 8b 40 08          	mov    0x8(%rax),%rax
  401a5c:	48 89 45 10          	mov    %rax,0x10(%rbp)
  401a60:	48 83 7d 10 00       	cmpq   $0x0,0x10(%rbp)
  401a65:	75 cf                	jne    401a36 <printList+0x13>
  401a67:	90                   	nop
  401a68:	48 83 c4 20          	add    $0x20,%rsp
  401a6c:	5d                   	pop    %rbp
  401a6d:	c3                   	retq   

0000000000401a6e <freeList>:
  401a6e:	e8 72 1c 00 00       	callq  4036e5 <__fentry__>
  401a73:	55                   	push   %rbp
  401a74:	48 89 e5             	mov    %rsp,%rbp
  401a77:	48 83 ec 30          	sub    $0x30,%rsp
  401a7b:	48 89 4d 10          	mov    %rcx,0x10(%rbp)
  401a7f:	eb 1d                	jmp    401a9e <freeList+0x30>
  401a81:	48 8b 45 10          	mov    0x10(%rbp),%rax
  401a85:	48 8b 40 08          	mov    0x8(%rax),%rax
  401a89:	48 89 45 f8          	mov    %rax,-0x8(%rbp)
  401a8d:	48 8b 4d 10          	mov    0x10(%rbp),%rcx
  401a91:	e8 ba 17 00 00       	callq  403250 <free>
  401a96:	48 8b 45 f8          	mov    -0x8(%rbp),%rax
  401a9a:	48 89 45 10          	mov    %rax,0x10(%rbp)
  401a9e:	48 83 7d 10 00       	cmpq   $0x0,0x10(%rbp)
  401aa3:	75 dc                	jne    401a81 <freeList+0x13>
  401aa5:	90                   	nop
  401aa6:	48 83 c4 30          	add    $0x30,%rsp
  401aaa:	5d                   	pop    %rbp
  401aab:	c3                   	retq   

0000000000401aac <countWithList>:
  401aac:	e8 34 1c 00 00       	callq  4036e5 <__fentry__>
  401ab1:	55                   	push   %rbp
  401ab2:	48 89 e5             	mov    %rsp,%rbp
  401ab5:	48 83 ec 30          	sub    $0x30,%rsp
  401ab9:	89 4d 10             	mov    %ecx,0x10(%rbp)
  401abc:	8b 4d 10             	mov    0x10(%rbp),%ecx
  401abf:	e8 7c fe ff ff       	callq  401940 <generateList>
  401ac4:	48 89 45 f8          	mov    %rax,-0x8(%rbp)
  401ac8:	48 8b 45 f8          	mov    -0x8(%rbp),%rax
  401acc:	48 89 c1             	mov    %rax,%rcx
  401acf:	e8 4f ff ff ff       	callq  401a23 <printList>
  401ad4:	48 8b 45 f8          	mov    -0x8(%rbp),%rax
  401ad8:	48 89 c1             	mov    %rax,%rcx
  401adb:	e8 8e ff ff ff       	callq  401a6e <freeList>
  401ae0:	90                   	nop
  401ae1:	48 83 c4 30          	add    $0x30,%rsp
  401ae5:	5d                   	pop    %rbp
  401ae6:	c3                   	retq   
  401ae7:	90                   	nop
  401ae8:	90                   	nop
  401ae9:	90                   	nop
  401aea:	90                   	nop
  401aeb:	90                   	nop
  401aec:	90                   	nop
  401aed:	90                   	nop
  401aee:	90                   	nop
  401aef:	90                   	nop

0000000000401af0 <mingw_onexit>:
  401af0:	53                   	push   %rbx
  401af1:	48 83 ec 30          	sub    $0x30,%rsp
  401af5:	48 89 cb             	mov    %rcx,%rbx
  401af8:	48 8b 0d d9 6e 00 00 	mov    0x6ed9(%rip),%rcx        # 4089d8 <__onexitbegin>
  401aff:	e8 bc 06 00 00       	callq  4021c0 <_decode_pointer>
  401b04:	48 89 44 24 20       	mov    %rax,0x20(%rsp)
  401b09:	48 83 f8 ff          	cmp    $0xffffffffffffffff,%rax
  401b0d:	75 21                	jne    401b30 <mingw_onexit+0x40>
  401b0f:	48 8b 05 7a 39 00 00 	mov    0x397a(%rip),%rax        # 405490 <.refptr.__imp__onexit>
  401b16:	48 89 d9             	mov    %rbx,%rcx
  401b19:	ff 10                	callq  *(%rax)
  401b1b:	48 89 c3             	mov    %rax,%rbx
  401b1e:	48 89 d8             	mov    %rbx,%rax
  401b21:	48 83 c4 30          	add    $0x30,%rsp
  401b25:	5b                   	pop    %rbx
  401b26:	c3                   	retq   
  401b27:	66 0f 1f 84 00 00 00 	nopw   0x0(%rax,%rax,1)
  401b2e:	00 00 
  401b30:	b9 08 00 00 00       	mov    $0x8,%ecx
  401b35:	e8 4e 17 00 00       	callq  403288 <_lock>
  401b3a:	48 8b 0d 97 6e 00 00 	mov    0x6e97(%rip),%rcx        # 4089d8 <__onexitbegin>
  401b41:	e8 7a 06 00 00       	callq  4021c0 <_decode_pointer>
  401b46:	48 8b 0d 93 6e 00 00 	mov    0x6e93(%rip),%rcx        # 4089e0 <__onexitend>
  401b4d:	48 89 44 24 20       	mov    %rax,0x20(%rsp)
  401b52:	e8 69 06 00 00       	callq  4021c0 <_decode_pointer>
  401b57:	48 8d 54 24 20       	lea    0x20(%rsp),%rdx
  401b5c:	4c 8d 44 24 28       	lea    0x28(%rsp),%r8
  401b61:	48 89 d9             	mov    %rbx,%rcx
  401b64:	48 89 44 24 28       	mov    %rax,0x28(%rsp)
  401b69:	e8 62 17 00 00       	callq  4032d0 <__dllonexit>
  401b6e:	48 8b 4c 24 20       	mov    0x20(%rsp),%rcx
  401b73:	48 89 c3             	mov    %rax,%rbx
  401b76:	e8 55 06 00 00       	callq  4021d0 <_encode_pointer>
  401b7b:	48 8b 4c 24 28       	mov    0x28(%rsp),%rcx
  401b80:	48 89 05 51 6e 00 00 	mov    %rax,0x6e51(%rip)        # 4089d8 <__onexitbegin>
  401b87:	e8 44 06 00 00       	callq  4021d0 <_encode_pointer>
  401b8c:	b9 08 00 00 00       	mov    $0x8,%ecx
  401b91:	48 89 05 48 6e 00 00 	mov    %rax,0x6e48(%rip)        # 4089e0 <__onexitend>
  401b98:	e8 db 16 00 00       	callq  403278 <_unlock>
  401b9d:	48 89 d8             	mov    %rbx,%rax
  401ba0:	48 83 c4 30          	add    $0x30,%rsp
  401ba4:	5b                   	pop    %rbx
  401ba5:	c3                   	retq   
  401ba6:	66 2e 0f 1f 84 00 00 	nopw   %cs:0x0(%rax,%rax,1)
  401bad:	00 00 00 

0000000000401bb0 <atexit>:
  401bb0:	53                   	push   %rbx
  401bb1:	48 83 ec 30          	sub    $0x30,%rsp
  401bb5:	48 89 cb             	mov    %rcx,%rbx
  401bb8:	48 8b 0d 19 6e 00 00 	mov    0x6e19(%rip),%rcx        # 4089d8 <__onexitbegin>
  401bbf:	e8 fc 05 00 00       	callq  4021c0 <_decode_pointer>
  401bc4:	48 89 44 24 20       	mov    %rax,0x20(%rsp)
  401bc9:	48 83 f8 ff          	cmp    $0xffffffffffffffff,%rax
  401bcd:	75 21                	jne    401bf0 <atexit+0x40>
  401bcf:	48 8b 05 ba 38 00 00 	mov    0x38ba(%rip),%rax        # 405490 <.refptr.__imp__onexit>
  401bd6:	48 89 d9             	mov    %rbx,%rcx
  401bd9:	ff 10                	callq  *(%rax)
  401bdb:	48 89 c3             	mov    %rax,%rbx
  401bde:	31 c0                	xor    %eax,%eax
  401be0:	48 85 db             	test   %rbx,%rbx
  401be3:	0f 94 c0             	sete   %al
  401be6:	f7 d8                	neg    %eax
  401be8:	48 83 c4 30          	add    $0x30,%rsp
  401bec:	5b                   	pop    %rbx
  401bed:	c3                   	retq   
  401bee:	66 90                	xchg   %ax,%ax
  401bf0:	b9 08 00 00 00       	mov    $0x8,%ecx
  401bf5:	e8 8e 16 00 00       	callq  403288 <_lock>
  401bfa:	48 8b 0d d7 6d 00 00 	mov    0x6dd7(%rip),%rcx        # 4089d8 <__onexitbegin>
  401c01:	e8 ba 05 00 00       	callq  4021c0 <_decode_pointer>
  401c06:	48 8b 0d d3 6d 00 00 	mov    0x6dd3(%rip),%rcx        # 4089e0 <__onexitend>
  401c0d:	48 89 44 24 20       	mov    %rax,0x20(%rsp)
  401c12:	e8 a9 05 00 00       	callq  4021c0 <_decode_pointer>
  401c17:	48 8d 54 24 20       	lea    0x20(%rsp),%rdx
  401c1c:	4c 8d 44 24 28       	lea    0x28(%rsp),%r8
  401c21:	48 89 d9             	mov    %rbx,%rcx
  401c24:	48 89 44 24 28       	mov    %rax,0x28(%rsp)
  401c29:	e8 a2 16 00 00       	callq  4032d0 <__dllonexit>
  401c2e:	48 8b 4c 24 20       	mov    0x20(%rsp),%rcx
  401c33:	48 89 c3             	mov    %rax,%rbx
  401c36:	e8 95 05 00 00       	callq  4021d0 <_encode_pointer>
  401c3b:	48 8b 4c 24 28       	mov    0x28(%rsp),%rcx
  401c40:	48 89 05 91 6d 00 00 	mov    %rax,0x6d91(%rip)        # 4089d8 <__onexitbegin>
  401c47:	e8 84 05 00 00       	callq  4021d0 <_encode_pointer>
  401c4c:	b9 08 00 00 00       	mov    $0x8,%ecx
  401c51:	48 89 05 88 6d 00 00 	mov    %rax,0x6d88(%rip)        # 4089e0 <__onexitend>
  401c58:	e8 1b 16 00 00       	callq  403278 <_unlock>
  401c5d:	31 c0                	xor    %eax,%eax
  401c5f:	48 85 db             	test   %rbx,%rbx
  401c62:	0f 94 c0             	sete   %al
  401c65:	f7 d8                	neg    %eax
  401c67:	48 83 c4 30          	add    $0x30,%rsp
  401c6b:	5b                   	pop    %rbx
  401c6c:	c3                   	retq   
  401c6d:	90                   	nop
  401c6e:	90                   	nop
  401c6f:	90                   	nop

0000000000401c70 <__do_global_dtors>:
  401c70:	48 83 ec 28          	sub    $0x28,%rsp
  401c74:	48 8b 05 95 23 00 00 	mov    0x2395(%rip),%rax        # 404010 <p.93120>
  401c7b:	48 8b 00             	mov    (%rax),%rax
  401c7e:	48 85 c0             	test   %rax,%rax
  401c81:	74 1d                	je     401ca0 <__do_global_dtors+0x30>
  401c83:	ff d0                	callq  *%rax
  401c85:	48 8b 05 84 23 00 00 	mov    0x2384(%rip),%rax        # 404010 <p.93120>
  401c8c:	48 8d 50 08          	lea    0x8(%rax),%rdx
  401c90:	48 8b 40 08          	mov    0x8(%rax),%rax
  401c94:	48 89 15 75 23 00 00 	mov    %rdx,0x2375(%rip)        # 404010 <p.93120>
  401c9b:	48 85 c0             	test   %rax,%rax
  401c9e:	75 e3                	jne    401c83 <__do_global_dtors+0x13>
  401ca0:	48 83 c4 28          	add    $0x28,%rsp
  401ca4:	c3                   	retq   
  401ca5:	90                   	nop
  401ca6:	66 2e 0f 1f 84 00 00 	nopw   %cs:0x0(%rax,%rax,1)
  401cad:	00 00 00 

0000000000401cb0 <__do_global_ctors>:
  401cb0:	56                   	push   %rsi
  401cb1:	53                   	push   %rbx
  401cb2:	48 83 ec 28          	sub    $0x28,%rsp
  401cb6:	48 8b 0d 43 37 00 00 	mov    0x3743(%rip),%rcx        # 405400 <.refptr.__CTOR_LIST__>
  401cbd:	48 8b 11             	mov    (%rcx),%rdx
  401cc0:	89 d0                	mov    %edx,%eax
  401cc2:	83 fa ff             	cmp    $0xffffffff,%edx
  401cc5:	74 39                	je     401d00 <__do_global_ctors+0x50>
  401cc7:	85 c0                	test   %eax,%eax
  401cc9:	74 20                	je     401ceb <__do_global_ctors+0x3b>
  401ccb:	89 c2                	mov    %eax,%edx
  401ccd:	83 e8 01             	sub    $0x1,%eax
  401cd0:	48 8d 1c d1          	lea    (%rcx,%rdx,8),%rbx
  401cd4:	48 29 c2             	sub    %rax,%rdx
  401cd7:	48 8d 74 d1 f8       	lea    -0x8(%rcx,%rdx,8),%rsi
  401cdc:	0f 1f 40 00          	nopl   0x0(%rax)
  401ce0:	ff 13                	callq  *(%rbx)
  401ce2:	48 83 eb 08          	sub    $0x8,%rbx
  401ce6:	48 39 f3             	cmp    %rsi,%rbx
  401ce9:	75 f5                	jne    401ce0 <__do_global_ctors+0x30>
  401ceb:	48 8d 0d 7e ff ff ff 	lea    -0x82(%rip),%rcx        # 401c70 <__do_global_dtors>
  401cf2:	48 83 c4 28          	add    $0x28,%rsp
  401cf6:	5b                   	pop    %rbx
  401cf7:	5e                   	pop    %rsi
  401cf8:	e9 b3 fe ff ff       	jmpq   401bb0 <atexit>
  401cfd:	0f 1f 00             	nopl   (%rax)
  401d00:	31 c0                	xor    %eax,%eax
  401d02:	eb 02                	jmp    401d06 <__do_global_ctors+0x56>
  401d04:	89 d0                	mov    %edx,%eax
  401d06:	44 8d 40 01          	lea    0x1(%rax),%r8d
  401d0a:	4a 83 3c c1 00       	cmpq   $0x0,(%rcx,%r8,8)
  401d0f:	4c 89 c2             	mov    %r8,%rdx
  401d12:	75 f0                	jne    401d04 <__do_global_ctors+0x54>
  401d14:	eb b1                	jmp    401cc7 <__do_global_ctors+0x17>
  401d16:	66 2e 0f 1f 84 00 00 	nopw   %cs:0x0(%rax,%rax,1)
  401d1d:	00 00 00 

0000000000401d20 <__main>:
  401d20:	56                   	push   %rsi
  401d21:	53                   	push   %rbx
  401d22:	48 83 ec 28          	sub    $0x28,%rsp
  401d26:	8b 05 14 63 00 00    	mov    0x6314(%rip),%eax        # 408040 <initialized>
  401d2c:	85 c0                	test   %eax,%eax
  401d2e:	74 10                	je     401d40 <__main+0x20>
  401d30:	48 83 c4 28          	add    $0x28,%rsp
  401d34:	5b                   	pop    %rbx
  401d35:	5e                   	pop    %rsi
  401d36:	c3                   	retq   
  401d37:	66 0f 1f 84 00 00 00 	nopw   0x0(%rax,%rax,1)
  401d3e:	00 00 
  401d40:	48 8b 0d b9 36 00 00 	mov    0x36b9(%rip),%rcx        # 405400 <.refptr.__CTOR_LIST__>
  401d47:	c7 05 ef 62 00 00 01 	movl   $0x1,0x62ef(%rip)        # 408040 <initialized>
  401d4e:	00 00 00 
  401d51:	48 8b 11             	mov    (%rcx),%rdx
  401d54:	89 d0                	mov    %edx,%eax
  401d56:	83 fa ff             	cmp    $0xffffffff,%edx
  401d59:	74 35                	je     401d90 <__main+0x70>
  401d5b:	85 c0                	test   %eax,%eax
  401d5d:	74 1c                	je     401d7b <__main+0x5b>
  401d5f:	89 c2                	mov    %eax,%edx
  401d61:	83 e8 01             	sub    $0x1,%eax
  401d64:	48 8d 1c d1          	lea    (%rcx,%rdx,8),%rbx
  401d68:	48 29 c2             	sub    %rax,%rdx
  401d6b:	48 8d 74 d1 f8       	lea    -0x8(%rcx,%rdx,8),%rsi
  401d70:	ff 13                	callq  *(%rbx)
  401d72:	48 83 eb 08          	sub    $0x8,%rbx
  401d76:	48 39 f3             	cmp    %rsi,%rbx
  401d79:	75 f5                	jne    401d70 <__main+0x50>
  401d7b:	48 8d 0d ee fe ff ff 	lea    -0x112(%rip),%rcx        # 401c70 <__do_global_dtors>
  401d82:	48 83 c4 28          	add    $0x28,%rsp
  401d86:	5b                   	pop    %rbx
  401d87:	5e                   	pop    %rsi
  401d88:	e9 23 fe ff ff       	jmpq   401bb0 <atexit>
  401d8d:	0f 1f 00             	nopl   (%rax)
  401d90:	31 c0                	xor    %eax,%eax
  401d92:	eb 02                	jmp    401d96 <__main+0x76>
  401d94:	89 d0                	mov    %edx,%eax
  401d96:	44 8d 40 01          	lea    0x1(%rax),%r8d
  401d9a:	4a 83 3c c1 00       	cmpq   $0x0,(%rcx,%r8,8)
  401d9f:	4c 89 c2             	mov    %r8,%rdx
  401da2:	75 f0                	jne    401d94 <__main+0x74>
  401da4:	eb b5                	jmp    401d5b <__main+0x3b>
  401da6:	90                   	nop
  401da7:	90                   	nop
  401da8:	90                   	nop
  401da9:	90                   	nop
  401daa:	90                   	nop
  401dab:	90                   	nop
  401dac:	90                   	nop
  401dad:	90                   	nop
  401dae:	90                   	nop
  401daf:	90                   	nop

0000000000401db0 <my_lconv_init>:
  401db0:	48 ff 25 0d 76 00 00 	rex.W jmpq *0x760d(%rip)        # 4093c4 <__imp___lconv_init>
  401db7:	90                   	nop
  401db8:	90                   	nop
  401db9:	90                   	nop
  401dba:	90                   	nop
  401dbb:	90                   	nop
  401dbc:	90                   	nop
  401dbd:	90                   	nop
  401dbe:	90                   	nop
  401dbf:	90                   	nop

0000000000401dc0 <_setargv>:
  401dc0:	31 c0                	xor    %eax,%eax
  401dc2:	c3                   	retq   
  401dc3:	90                   	nop
  401dc4:	90                   	nop
  401dc5:	90                   	nop
  401dc6:	90                   	nop
  401dc7:	90                   	nop
  401dc8:	90                   	nop
  401dc9:	90                   	nop
  401dca:	90                   	nop
  401dcb:	90                   	nop
  401dcc:	90                   	nop
  401dcd:	90                   	nop
  401dce:	90                   	nop
  401dcf:	90                   	nop

0000000000401dd0 <__security_init_cookie>:
  401dd0:	41 54                	push   %r12
  401dd2:	55                   	push   %rbp
  401dd3:	57                   	push   %rdi
  401dd4:	56                   	push   %rsi
  401dd5:	53                   	push   %rbx
  401dd6:	48 83 ec 30          	sub    $0x30,%rsp
  401dda:	48 8b 1d 1f 23 00 00 	mov    0x231f(%rip),%rbx        # 404100 <__security_cookie>
  401de1:	48 b8 32 a2 df 2d 99 	movabs $0x2b992ddfa232,%rax
  401de8:	2b 00 00 
  401deb:	48 c7 44 24 20 00 00 	movq   $0x0,0x20(%rsp)
  401df2:	00 00 
  401df4:	48 39 c3             	cmp    %rax,%rbx
  401df7:	74 17                	je     401e10 <__security_init_cookie+0x40>
  401df9:	48 f7 d3             	not    %rbx
  401dfc:	48 89 1d 0d 23 00 00 	mov    %rbx,0x230d(%rip)        # 404110 <__security_cookie_complement>
  401e03:	48 83 c4 30          	add    $0x30,%rsp
  401e07:	5b                   	pop    %rbx
  401e08:	5e                   	pop    %rsi
  401e09:	5f                   	pop    %rdi
  401e0a:	5d                   	pop    %rbp
  401e0b:	41 5c                	pop    %r12
  401e0d:	c3                   	retq   
  401e0e:	66 90                	xchg   %ax,%ax
  401e10:	48 8d 4c 24 20       	lea    0x20(%rsp),%rcx
  401e15:	ff 15 c9 74 00 00    	callq  *0x74c9(%rip)        # 4092e4 <__imp_GetSystemTimeAsFileTime>
  401e1b:	48 8b 74 24 20       	mov    0x20(%rsp),%rsi
  401e20:	ff 15 96 74 00 00    	callq  *0x7496(%rip)        # 4092bc <__imp_GetCurrentProcessId>
  401e26:	41 89 c4             	mov    %eax,%r12d
  401e29:	ff 15 9d 74 00 00    	callq  *0x749d(%rip)        # 4092cc <__imp_GetCurrentThreadId>
  401e2f:	89 c5                	mov    %eax,%ebp
  401e31:	ff 15 bd 74 00 00    	callq  *0x74bd(%rip)        # 4092f4 <__imp_GetTickCount>
  401e37:	48 8d 4c 24 28       	lea    0x28(%rsp),%rcx
  401e3c:	89 c7                	mov    %eax,%edi
  401e3e:	ff 15 c8 74 00 00    	callq  *0x74c8(%rip)        # 40930c <__imp_QueryPerformanceCounter>
  401e44:	48 33 74 24 28       	xor    0x28(%rsp),%rsi
  401e49:	44 89 e0             	mov    %r12d,%eax
  401e4c:	48 ba ff ff ff ff ff 	movabs $0xffffffffffff,%rdx
  401e53:	ff 00 00 
  401e56:	48 31 f0             	xor    %rsi,%rax
  401e59:	89 ee                	mov    %ebp,%esi
  401e5b:	48 31 c6             	xor    %rax,%rsi
  401e5e:	89 f8                	mov    %edi,%eax
  401e60:	48 31 f0             	xor    %rsi,%rax
  401e63:	48 21 d0             	and    %rdx,%rax
  401e66:	48 39 d8             	cmp    %rbx,%rax
  401e69:	74 25                	je     401e90 <__security_init_cookie+0xc0>
  401e6b:	48 89 c2             	mov    %rax,%rdx
  401e6e:	48 f7 d2             	not    %rdx
  401e71:	48 89 05 88 22 00 00 	mov    %rax,0x2288(%rip)        # 404100 <__security_cookie>
  401e78:	48 89 15 91 22 00 00 	mov    %rdx,0x2291(%rip)        # 404110 <__security_cookie_complement>
  401e7f:	48 83 c4 30          	add    $0x30,%rsp
  401e83:	5b                   	pop    %rbx
  401e84:	5e                   	pop    %rsi
  401e85:	5f                   	pop    %rdi
  401e86:	5d                   	pop    %rbp
  401e87:	41 5c                	pop    %r12
  401e89:	c3                   	retq   
  401e8a:	66 0f 1f 44 00 00    	nopw   0x0(%rax,%rax,1)
  401e90:	48 ba cc 5d 20 d2 66 	movabs $0xffffd466d2205dcc,%rdx
  401e97:	d4 ff ff 
  401e9a:	48 b8 33 a2 df 2d 99 	movabs $0x2b992ddfa233,%rax
  401ea1:	2b 00 00 
  401ea4:	eb cb                	jmp    401e71 <__security_init_cookie+0xa1>
  401ea6:	66 2e 0f 1f 84 00 00 	nopw   %cs:0x0(%rax,%rax,1)
  401ead:	00 00 00 

0000000000401eb0 <__report_gsfailure>:
  401eb0:	55                   	push   %rbp
  401eb1:	56                   	push   %rsi
  401eb2:	53                   	push   %rbx
  401eb3:	48 89 e5             	mov    %rsp,%rbp
  401eb6:	48 83 ec 70          	sub    $0x70,%rsp
  401eba:	48 89 ce             	mov    %rcx,%rsi
  401ebd:	48 8d 0d 9c 61 00 00 	lea    0x619c(%rip),%rcx        # 408060 <GS_ContextRecord>
  401ec4:	ff 15 5a 74 00 00    	callq  *0x745a(%rip)        # 409324 <__imp_RtlCaptureContext>
  401eca:	48 8b 1d 87 62 00 00 	mov    0x6287(%rip),%rbx        # 408158 <GS_ContextRecord+0xf8>
  401ed1:	45 31 c0             	xor    %r8d,%r8d
  401ed4:	48 8d 55 d8          	lea    -0x28(%rbp),%rdx
  401ed8:	48 89 d9             	mov    %rbx,%rcx
  401edb:	ff 15 4b 74 00 00    	callq  *0x744b(%rip)        # 40932c <__imp_RtlLookupFunctionEntry>
  401ee1:	48 85 c0             	test   %rax,%rax
  401ee4:	0f 84 a3 00 00 00    	je     401f8d <__report_gsfailure+0xdd>
  401eea:	48 8d 55 e0          	lea    -0x20(%rbp),%rdx
  401eee:	48 8d 0d 6b 61 00 00 	lea    0x616b(%rip),%rcx        # 408060 <GS_ContextRecord>
  401ef5:	49 89 c1             	mov    %rax,%r9
  401ef8:	49 89 d8             	mov    %rbx,%r8
  401efb:	48 89 54 24 30       	mov    %rdx,0x30(%rsp)
  401f00:	48 8d 55 e8          	lea    -0x18(%rbp),%rdx
  401f04:	48 89 54 24 28       	mov    %rdx,0x28(%rsp)
  401f09:	48 8b 55 d8          	mov    -0x28(%rbp),%rdx
  401f0d:	48 89 4c 24 20       	mov    %rcx,0x20(%rsp)
  401f12:	31 c9                	xor    %ecx,%ecx
  401f14:	48 c7 44 24 38 00 00 	movq   $0x0,0x38(%rsp)
  401f1b:	00 00 
  401f1d:	ff 15 11 74 00 00    	callq  *0x7411(%rip)        # 409334 <__imp_RtlVirtualUnwind>
  401f23:	48 8b 05 2e 62 00 00 	mov    0x622e(%rip),%rax        # 408158 <GS_ContextRecord+0xf8>
  401f2a:	31 c9                	xor    %ecx,%ecx
  401f2c:	48 89 35 ad 61 00 00 	mov    %rsi,0x61ad(%rip)        # 4080e0 <GS_ContextRecord+0x80>
  401f33:	48 89 05 16 66 00 00 	mov    %rax,0x6616(%rip)        # 408550 <GS_ExceptionRecord+0x10>
  401f3a:	48 b8 09 04 00 c0 01 	movabs $0x1c0000409,%rax
  401f41:	00 00 00 
  401f44:	48 89 05 f5 65 00 00 	mov    %rax,0x65f5(%rip)        # 408540 <GS_ExceptionRecord>
  401f4b:	48 8b 05 ae 21 00 00 	mov    0x21ae(%rip),%rax        # 404100 <__security_cookie>
  401f52:	48 89 45 f0          	mov    %rax,-0x10(%rbp)
  401f56:	48 8b 05 b3 21 00 00 	mov    0x21b3(%rip),%rax        # 404110 <__security_cookie_complement>
  401f5d:	48 89 45 f8          	mov    %rax,-0x8(%rbp)
  401f61:	ff 15 dd 73 00 00    	callq  *0x73dd(%rip)        # 409344 <__imp_SetUnhandledExceptionFilter>
  401f67:	48 8d 0d b2 31 00 00 	lea    0x31b2(%rip),%rcx        # 405120 <GS_ExceptionPointers>
  401f6e:	ff 15 00 74 00 00    	callq  *0x7400(%rip)        # 409374 <__imp_UnhandledExceptionFilter>
  401f74:	ff 15 3a 73 00 00    	callq  *0x733a(%rip)        # 4092b4 <__imp_GetCurrentProcess>
  401f7a:	ba 09 04 00 c0       	mov    $0xc0000409,%edx
  401f7f:	48 89 c1             	mov    %rax,%rcx
  401f82:	ff 15 dc 73 00 00    	callq  *0x73dc(%rip)        # 409364 <__imp_TerminateProcess>
  401f88:	e8 e3 12 00 00       	callq  403270 <abort>
  401f8d:	48 8b 45 18          	mov    0x18(%rbp),%rax
  401f91:	48 89 05 c0 61 00 00 	mov    %rax,0x61c0(%rip)        # 408158 <GS_ContextRecord+0xf8>
  401f98:	48 8d 45 08          	lea    0x8(%rbp),%rax
  401f9c:	48 89 05 55 61 00 00 	mov    %rax,0x6155(%rip)        # 4080f8 <GS_ContextRecord+0x98>
  401fa3:	e9 7b ff ff ff       	jmpq   401f23 <__report_gsfailure+0x73>
  401fa8:	90                   	nop
  401fa9:	90                   	nop
  401faa:	90                   	nop
  401fab:	90                   	nop
  401fac:	90                   	nop
  401fad:	90                   	nop
  401fae:	90                   	nop
  401faf:	90                   	nop

0000000000401fb0 <__dyn_tls_dtor>:
  401fb0:	48 83 ec 28          	sub    $0x28,%rsp
  401fb4:	83 fa 03             	cmp    $0x3,%edx
  401fb7:	74 17                	je     401fd0 <__dyn_tls_dtor+0x20>
  401fb9:	85 d2                	test   %edx,%edx
  401fbb:	74 13                	je     401fd0 <__dyn_tls_dtor+0x20>
  401fbd:	b8 01 00 00 00       	mov    $0x1,%eax
  401fc2:	48 83 c4 28          	add    $0x28,%rsp
  401fc6:	c3                   	retq   
  401fc7:	66 0f 1f 84 00 00 00 	nopw   0x0(%rax,%rax,1)
  401fce:	00 00 
  401fd0:	e8 6b 0c 00 00       	callq  402c40 <__mingw_TLScallback>
  401fd5:	b8 01 00 00 00       	mov    $0x1,%eax
  401fda:	48 83 c4 28          	add    $0x28,%rsp
  401fde:	c3                   	retq   
  401fdf:	90                   	nop

0000000000401fe0 <__dyn_tls_init>:
  401fe0:	56                   	push   %rsi
  401fe1:	53                   	push   %rbx
  401fe2:	48 83 ec 28          	sub    $0x28,%rsp
  401fe6:	48 8b 05 f3 33 00 00 	mov    0x33f3(%rip),%rax        # 4053e0 <.refptr._CRT_MT>
  401fed:	83 38 02             	cmpl   $0x2,(%rax)
  401ff0:	74 06                	je     401ff8 <__dyn_tls_init+0x18>
  401ff2:	c7 00 02 00 00 00    	movl   $0x2,(%rax)
  401ff8:	83 fa 02             	cmp    $0x2,%edx
  401ffb:	74 13                	je     402010 <__dyn_tls_init+0x30>
  401ffd:	83 fa 01             	cmp    $0x1,%edx
  402000:	74 40                	je     402042 <__dyn_tls_init+0x62>
  402002:	b8 01 00 00 00       	mov    $0x1,%eax
  402007:	48 83 c4 28          	add    $0x28,%rsp
  40200b:	5b                   	pop    %rbx
  40200c:	5e                   	pop    %rsi
  40200d:	c3                   	retq   
  40200e:	66 90                	xchg   %ax,%ax
  402010:	48 8d 1d 49 80 00 00 	lea    0x8049(%rip),%rbx        # 40a060 <__xd_z>
  402017:	48 8d 35 42 80 00 00 	lea    0x8042(%rip),%rsi        # 40a060 <__xd_z>
  40201e:	48 39 de             	cmp    %rbx,%rsi
  402021:	74 df                	je     402002 <__dyn_tls_init+0x22>
  402023:	48 8b 03             	mov    (%rbx),%rax
  402026:	48 85 c0             	test   %rax,%rax
  402029:	74 02                	je     40202d <__dyn_tls_init+0x4d>
  40202b:	ff d0                	callq  *%rax
  40202d:	48 83 c3 08          	add    $0x8,%rbx
  402031:	48 39 de             	cmp    %rbx,%rsi
  402034:	75 ed                	jne    402023 <__dyn_tls_init+0x43>
  402036:	b8 01 00 00 00       	mov    $0x1,%eax
  40203b:	48 83 c4 28          	add    $0x28,%rsp
  40203f:	5b                   	pop    %rbx
  402040:	5e                   	pop    %rsi
  402041:	c3                   	retq   
  402042:	e8 f9 0b 00 00       	callq  402c40 <__mingw_TLScallback>
  402047:	b8 01 00 00 00       	mov    $0x1,%eax
  40204c:	48 83 c4 28          	add    $0x28,%rsp
  402050:	5b                   	pop    %rbx
  402051:	5e                   	pop    %rsi
  402052:	c3                   	retq   
  402053:	0f 1f 00             	nopl   (%rax)
  402056:	66 2e 0f 1f 84 00 00 	nopw   %cs:0x0(%rax,%rax,1)
  40205d:	00 00 00 

0000000000402060 <__tlregdtor>:
  402060:	31 c0                	xor    %eax,%eax
  402062:	c3                   	retq   
  402063:	90                   	nop
  402064:	90                   	nop
  402065:	90                   	nop
  402066:	90                   	nop
  402067:	90                   	nop
  402068:	90                   	nop
  402069:	90                   	nop
  40206a:	90                   	nop
  40206b:	90                   	nop
  40206c:	90                   	nop
  40206d:	90                   	nop
  40206e:	90                   	nop
  40206f:	90                   	nop

0000000000402070 <__mingw_raise_matherr>:
  402070:	48 83 ec 58          	sub    $0x58,%rsp
  402074:	48 8b 05 85 65 00 00 	mov    0x6585(%rip),%rax        # 408600 <stUserMathErr>
  40207b:	48 85 c0             	test   %rax,%rax
  40207e:	74 29                	je     4020a9 <__mingw_raise_matherr+0x39>
  402080:	f2 0f 10 84 24 80 00 	movsd  0x80(%rsp),%xmm0
  402087:	00 00 
  402089:	66 0f 14 d3          	unpcklpd %xmm3,%xmm2
  40208d:	89 4c 24 20          	mov    %ecx,0x20(%rsp)
  402091:	48 8d 4c 24 20       	lea    0x20(%rsp),%rcx
  402096:	48 89 54 24 28       	mov    %rdx,0x28(%rsp)
  40209b:	0f 29 54 24 30       	movaps %xmm2,0x30(%rsp)
  4020a0:	f2 0f 11 44 24 40    	movsd  %xmm0,0x40(%rsp)
  4020a6:	ff d0                	callq  *%rax
  4020a8:	90                   	nop
  4020a9:	48 83 c4 58          	add    $0x58,%rsp
  4020ad:	c3                   	retq   
  4020ae:	66 90                	xchg   %ax,%ax

00000000004020b0 <__mingw_setusermatherr>:
  4020b0:	48 89 0d 49 65 00 00 	mov    %rcx,0x6549(%rip)        # 408600 <stUserMathErr>
  4020b7:	e9 ec 11 00 00       	jmpq   4032a8 <__setusermatherr>
  4020bc:	0f 1f 40 00          	nopl   0x0(%rax)

00000000004020c0 <_matherr>:
  4020c0:	56                   	push   %rsi
  4020c1:	53                   	push   %rbx
  4020c2:	48 83 ec 78          	sub    $0x78,%rsp
  4020c6:	0f 29 74 24 40       	movaps %xmm6,0x40(%rsp)
  4020cb:	0f 29 7c 24 50       	movaps %xmm7,0x50(%rsp)
  4020d0:	44 0f 29 44 24 60    	movaps %xmm8,0x60(%rsp)
  4020d6:	83 39 06             	cmpl   $0x6,(%rcx)
  4020d9:	0f 87 c1 00 00 00    	ja     4021a0 <_matherr+0xe0>
  4020df:	8b 01                	mov    (%rcx),%eax
  4020e1:	48 8d 15 7c 31 00 00 	lea    0x317c(%rip),%rdx        # 405264 <.rdata+0x124>
  4020e8:	48 63 04 82          	movslq (%rdx,%rax,4),%rax
  4020ec:	48 01 d0             	add    %rdx,%rax
  4020ef:	ff e0                	jmpq   *%rax
  4020f1:	48 8d 1d 48 30 00 00 	lea    0x3048(%rip),%rbx        # 405140 <.rdata>
  4020f8:	f2 44 0f 10 41 20    	movsd  0x20(%rcx),%xmm8
  4020fe:	f2 0f 10 79 18       	movsd  0x18(%rcx),%xmm7
  402103:	f2 0f 10 71 10       	movsd  0x10(%rcx),%xmm6
  402108:	48 8b 71 08          	mov    0x8(%rcx),%rsi
  40210c:	e8 af 11 00 00       	callq  4032c0 <__iob_func>
  402111:	f2 44 0f 11 44 24 30 	movsd  %xmm8,0x30(%rsp)
  402118:	49 89 d8             	mov    %rbx,%r8
  40211b:	48 8d 15 16 31 00 00 	lea    0x3116(%rip),%rdx        # 405238 <.rdata+0xf8>
  402122:	f2 0f 11 7c 24 28    	movsd  %xmm7,0x28(%rsp)
  402128:	48 8d 48 60          	lea    0x60(%rax),%rcx
  40212c:	49 89 f1             	mov    %rsi,%r9
  40212f:	f2 0f 11 74 24 20    	movsd  %xmm6,0x20(%rsp)
  402135:	e8 1e 11 00 00       	callq  403258 <fprintf>
  40213a:	90                   	nop
  40213b:	0f 28 74 24 40       	movaps 0x40(%rsp),%xmm6
  402140:	0f 28 7c 24 50       	movaps 0x50(%rsp),%xmm7
  402145:	31 c0                	xor    %eax,%eax
  402147:	44 0f 28 44 24 60    	movaps 0x60(%rsp),%xmm8
  40214d:	48 83 c4 78          	add    $0x78,%rsp
  402151:	5b                   	pop    %rbx
  402152:	5e                   	pop    %rsi
  402153:	c3                   	retq   
  402154:	48 8d 1d 04 30 00 00 	lea    0x3004(%rip),%rbx        # 40515f <.rdata+0x1f>
  40215b:	eb 9b                	jmp    4020f8 <_matherr+0x38>
  40215d:	0f 1f 00             	nopl   (%rax)
  402160:	48 8d 1d 19 30 00 00 	lea    0x3019(%rip),%rbx        # 405180 <.rdata+0x40>
  402167:	eb 8f                	jmp    4020f8 <_matherr+0x38>
  402169:	0f 1f 80 00 00 00 00 	nopl   0x0(%rax)
  402170:	48 8d 1d 79 30 00 00 	lea    0x3079(%rip),%rbx        # 4051f0 <.rdata+0xb0>
  402177:	e9 7c ff ff ff       	jmpq   4020f8 <_matherr+0x38>
  40217c:	0f 1f 40 00          	nopl   0x0(%rax)
  402180:	48 8d 1d 41 30 00 00 	lea    0x3041(%rip),%rbx        # 4051c8 <.rdata+0x88>
  402187:	e9 6c ff ff ff       	jmpq   4020f8 <_matherr+0x38>
  40218c:	0f 1f 40 00          	nopl   0x0(%rax)
  402190:	48 8d 1d 09 30 00 00 	lea    0x3009(%rip),%rbx        # 4051a0 <.rdata+0x60>
  402197:	e9 5c ff ff ff       	jmpq   4020f8 <_matherr+0x38>
  40219c:	0f 1f 40 00          	nopl   0x0(%rax)
  4021a0:	48 8d 1d 7f 30 00 00 	lea    0x307f(%rip),%rbx        # 405226 <.rdata+0xe6>
  4021a7:	e9 4c ff ff ff       	jmpq   4020f8 <_matherr+0x38>
  4021ac:	90                   	nop
  4021ad:	90                   	nop
  4021ae:	90                   	nop
  4021af:	90                   	nop

00000000004021b0 <_fpreset>:
  4021b0:	db e3                	fninit 
  4021b2:	c3                   	retq   
  4021b3:	90                   	nop
  4021b4:	90                   	nop
  4021b5:	90                   	nop
  4021b6:	90                   	nop
  4021b7:	90                   	nop
  4021b8:	90                   	nop
  4021b9:	90                   	nop
  4021ba:	90                   	nop
  4021bb:	90                   	nop
  4021bc:	90                   	nop
  4021bd:	90                   	nop
  4021be:	90                   	nop
  4021bf:	90                   	nop

00000000004021c0 <_decode_pointer>:
  4021c0:	48 89 c8             	mov    %rcx,%rax
  4021c3:	c3                   	retq   
  4021c4:	66 90                	xchg   %ax,%ax
  4021c6:	66 2e 0f 1f 84 00 00 	nopw   %cs:0x0(%rax,%rax,1)
  4021cd:	00 00 00 

00000000004021d0 <_encode_pointer>:
  4021d0:	48 89 c8             	mov    %rcx,%rax
  4021d3:	c3                   	retq   
  4021d4:	90                   	nop
  4021d5:	90                   	nop
  4021d6:	90                   	nop
  4021d7:	90                   	nop
  4021d8:	90                   	nop
  4021d9:	90                   	nop
  4021da:	90                   	nop
  4021db:	90                   	nop
  4021dc:	90                   	nop
  4021dd:	90                   	nop
  4021de:	90                   	nop
  4021df:	90                   	nop

00000000004021e0 <__report_error>:
  4021e0:	56                   	push   %rsi
  4021e1:	53                   	push   %rbx
  4021e2:	48 83 ec 38          	sub    $0x38,%rsp
  4021e6:	48 8d 44 24 58       	lea    0x58(%rsp),%rax
  4021eb:	48 89 cb             	mov    %rcx,%rbx
  4021ee:	48 89 54 24 58       	mov    %rdx,0x58(%rsp)
  4021f3:	4c 89 44 24 60       	mov    %r8,0x60(%rsp)
  4021f8:	4c 89 4c 24 68       	mov    %r9,0x68(%rsp)
  4021fd:	48 89 44 24 28       	mov    %rax,0x28(%rsp)
  402202:	e8 b9 10 00 00       	callq  4032c0 <__iob_func>
  402207:	41 b8 1b 00 00 00    	mov    $0x1b,%r8d
  40220d:	ba 01 00 00 00       	mov    $0x1,%edx
  402212:	48 8d 0d 67 30 00 00 	lea    0x3067(%rip),%rcx        # 405280 <.rdata>
  402219:	4c 8d 48 60          	lea    0x60(%rax),%r9
  40221d:	e8 26 10 00 00       	callq  403248 <fwrite>
  402222:	48 8b 74 24 28       	mov    0x28(%rsp),%rsi
  402227:	e8 94 10 00 00       	callq  4032c0 <__iob_func>
  40222c:	48 89 da             	mov    %rbx,%rdx
  40222f:	48 8d 48 60          	lea    0x60(%rax),%rcx
  402233:	49 89 f0             	mov    %rsi,%r8
  402236:	e8 c5 0f 00 00       	callq  403200 <vfprintf>
  40223b:	e8 30 10 00 00       	callq  403270 <abort>
  402240:	90                   	nop
  402241:	0f 1f 44 00 00       	nopl   0x0(%rax,%rax,1)
  402246:	66 2e 0f 1f 84 00 00 	nopw   %cs:0x0(%rax,%rax,1)
  40224d:	00 00 00 

0000000000402250 <mark_section_writable>:
  402250:	57                   	push   %rdi
  402251:	56                   	push   %rsi
  402252:	53                   	push   %rbx
  402253:	48 83 ec 50          	sub    $0x50,%rsp
  402257:	48 63 35 c6 63 00 00 	movslq 0x63c6(%rip),%rsi        # 408624 <maxSections>
  40225e:	48 89 cb             	mov    %rcx,%rbx
  402261:	85 f6                	test   %esi,%esi
  402263:	0f 8e 07 01 00 00    	jle    402370 <mark_section_writable+0x120>
  402269:	48 8b 05 b8 63 00 00 	mov    0x63b8(%rip),%rax        # 408628 <the_secs>
  402270:	45 31 c0             	xor    %r8d,%r8d
  402273:	48 83 c0 08          	add    $0x8,%rax
  402277:	66 0f 1f 84 00 00 00 	nopw   0x0(%rax,%rax,1)
  40227e:	00 00 
  402280:	48 8b 08             	mov    (%rax),%rcx
  402283:	48 39 d9             	cmp    %rbx,%rcx
  402286:	77 13                	ja     40229b <mark_section_writable+0x4b>
  402288:	48 8b 50 08          	mov    0x8(%rax),%rdx
  40228c:	8b 52 08             	mov    0x8(%rdx),%edx
  40228f:	48 01 d1             	add    %rdx,%rcx
  402292:	48 39 cb             	cmp    %rcx,%rbx
  402295:	0f 82 85 00 00 00    	jb     402320 <mark_section_writable+0xd0>
  40229b:	41 83 c0 01          	add    $0x1,%r8d
  40229f:	48 83 c0 18          	add    $0x18,%rax
  4022a3:	41 39 f0             	cmp    %esi,%r8d
  4022a6:	75 d8                	jne    402280 <mark_section_writable+0x30>
  4022a8:	48 89 d9             	mov    %rbx,%rcx
  4022ab:	e8 90 0c 00 00       	callq  402f40 <__mingw_GetSectionForAddress>
  4022b0:	48 89 c7             	mov    %rax,%rdi
  4022b3:	48 85 c0             	test   %rax,%rax
  4022b6:	0f 84 d6 00 00 00    	je     402392 <mark_section_writable+0x142>
  4022bc:	48 8b 05 65 63 00 00 	mov    0x6365(%rip),%rax        # 408628 <the_secs>
  4022c3:	48 8d 1c 76          	lea    (%rsi,%rsi,2),%rbx
  4022c7:	48 c1 e3 03          	shl    $0x3,%rbx
  4022cb:	48 01 d8             	add    %rbx,%rax
  4022ce:	48 89 78 10          	mov    %rdi,0x10(%rax)
  4022d2:	c7 00 00 00 00 00    	movl   $0x0,(%rax)
  4022d8:	e8 63 0d 00 00       	callq  403040 <_GetPEImageBase>
  4022dd:	8b 4f 0c             	mov    0xc(%rdi),%ecx
  4022e0:	48 8d 54 24 20       	lea    0x20(%rsp),%rdx
  4022e5:	41 b8 30 00 00 00    	mov    $0x30,%r8d
  4022eb:	48 01 c1             	add    %rax,%rcx
  4022ee:	48 8b 05 33 63 00 00 	mov    0x6333(%rip),%rax        # 408628 <the_secs>
  4022f5:	48 89 4c 18 08       	mov    %rcx,0x8(%rax,%rbx,1)
  4022fa:	ff 15 84 70 00 00    	callq  *0x7084(%rip)        # 409384 <__imp_VirtualQuery>
  402300:	48 85 c0             	test   %rax,%rax
  402303:	74 72                	je     402377 <mark_section_writable+0x127>
  402305:	8b 44 24 44          	mov    0x44(%rsp),%eax
  402309:	8d 50 fc             	lea    -0x4(%rax),%edx
  40230c:	83 e2 fb             	and    $0xfffffffb,%edx
  40230f:	74 08                	je     402319 <mark_section_writable+0xc9>
  402311:	83 e8 40             	sub    $0x40,%eax
  402314:	83 e0 bf             	and    $0xffffffbf,%eax
  402317:	75 17                	jne    402330 <mark_section_writable+0xe0>
  402319:	83 05 04 63 00 00 01 	addl   $0x1,0x6304(%rip)        # 408624 <maxSections>
  402320:	48 83 c4 50          	add    $0x50,%rsp
  402324:	5b                   	pop    %rbx
  402325:	5e                   	pop    %rsi
  402326:	5f                   	pop    %rdi
  402327:	c3                   	retq   
  402328:	0f 1f 84 00 00 00 00 	nopl   0x0(%rax,%rax,1)
  40232f:	00 
  402330:	41 b8 40 00 00 00    	mov    $0x40,%r8d
  402336:	48 8b 54 24 38       	mov    0x38(%rsp),%rdx
  40233b:	48 8b 4c 24 20       	mov    0x20(%rsp),%rcx
  402340:	48 03 1d e1 62 00 00 	add    0x62e1(%rip),%rbx        # 408628 <the_secs>
  402347:	49 89 d9             	mov    %rbx,%r9
  40234a:	ff 15 2c 70 00 00    	callq  *0x702c(%rip)        # 40937c <__imp_VirtualProtect>
  402350:	85 c0                	test   %eax,%eax
  402352:	75 c5                	jne    402319 <mark_section_writable+0xc9>
  402354:	ff 15 7a 6f 00 00    	callq  *0x6f7a(%rip)        # 4092d4 <__imp_GetLastError>
  40235a:	48 8d 0d 97 2f 00 00 	lea    0x2f97(%rip),%rcx        # 4052f8 <.rdata+0x78>
  402361:	89 c2                	mov    %eax,%edx
  402363:	e8 78 fe ff ff       	callq  4021e0 <__report_error>
  402368:	0f 1f 84 00 00 00 00 	nopl   0x0(%rax,%rax,1)
  40236f:	00 
  402370:	31 f6                	xor    %esi,%esi
  402372:	e9 31 ff ff ff       	jmpq   4022a8 <mark_section_writable+0x58>
  402377:	48 8b 05 aa 62 00 00 	mov    0x62aa(%rip),%rax        # 408628 <the_secs>
  40237e:	8b 57 08             	mov    0x8(%rdi),%edx
  402381:	48 8d 0d 38 2f 00 00 	lea    0x2f38(%rip),%rcx        # 4052c0 <.rdata+0x40>
  402388:	4c 8b 44 18 08       	mov    0x8(%rax,%rbx,1),%r8
  40238d:	e8 4e fe ff ff       	callq  4021e0 <__report_error>
  402392:	48 89 da             	mov    %rbx,%rdx
  402395:	48 8d 0d 04 2f 00 00 	lea    0x2f04(%rip),%rcx        # 4052a0 <.rdata+0x20>
  40239c:	e8 3f fe ff ff       	callq  4021e0 <__report_error>
  4023a1:	90                   	nop
  4023a2:	0f 1f 40 00          	nopl   0x0(%rax)
  4023a6:	66 2e 0f 1f 84 00 00 	nopw   %cs:0x0(%rax,%rax,1)
  4023ad:	00 00 00 

00000000004023b0 <_pei386_runtime_relocator>:
  4023b0:	55                   	push   %rbp
  4023b1:	41 57                	push   %r15
  4023b3:	41 56                	push   %r14
  4023b5:	41 55                	push   %r13
  4023b7:	41 54                	push   %r12
  4023b9:	57                   	push   %rdi
  4023ba:	56                   	push   %rsi
  4023bb:	53                   	push   %rbx
  4023bc:	48 83 ec 68          	sub    $0x68,%rsp
  4023c0:	48 8d ac 24 80 00 00 	lea    0x80(%rsp),%rbp
  4023c7:	00 
  4023c8:	8b 35 52 62 00 00    	mov    0x6252(%rip),%esi        # 408620 <was_init.93944>
  4023ce:	85 f6                	test   %esi,%esi
  4023d0:	74 11                	je     4023e3 <_pei386_runtime_relocator+0x33>
  4023d2:	48 8d 65 e8          	lea    -0x18(%rbp),%rsp
  4023d6:	5b                   	pop    %rbx
  4023d7:	5e                   	pop    %rsi
  4023d8:	5f                   	pop    %rdi
  4023d9:	41 5c                	pop    %r12
  4023db:	41 5d                	pop    %r13
  4023dd:	41 5e                	pop    %r14
  4023df:	41 5f                	pop    %r15
  4023e1:	5d                   	pop    %rbp
  4023e2:	c3                   	retq   
  4023e3:	c7 05 33 62 00 00 01 	movl   $0x1,0x6233(%rip)        # 408620 <was_init.93944>
  4023ea:	00 00 00 
  4023ed:	e8 be 0b 00 00       	callq  402fb0 <__mingw_GetSectionCount>
  4023f2:	48 98                	cltq   
  4023f4:	48 8d 04 40          	lea    (%rax,%rax,2),%rax
  4023f8:	48 8d 04 c5 1e 00 00 	lea    0x1e(,%rax,8),%rax
  4023ff:	00 
  402400:	48 83 e0 f0          	and    $0xfffffffffffffff0,%rax
  402404:	e8 b7 0d 00 00       	callq  4031c0 <___chkstk_ms>
  402409:	4c 8b 25 00 30 00 00 	mov    0x3000(%rip),%r12        # 405410 <.refptr.__RUNTIME_PSEUDO_RELOC_LIST_END__>
  402410:	48 8b 1d 09 30 00 00 	mov    0x3009(%rip),%rbx        # 405420 <.refptr.__RUNTIME_PSEUDO_RELOC_LIST__>
  402417:	c7 05 03 62 00 00 00 	movl   $0x0,0x6203(%rip)        # 408624 <maxSections>
  40241e:	00 00 00 
  402421:	48 29 c4             	sub    %rax,%rsp
  402424:	48 8d 44 24 20       	lea    0x20(%rsp),%rax
  402429:	48 89 05 f8 61 00 00 	mov    %rax,0x61f8(%rip)        # 408628 <the_secs>
  402430:	4c 89 e0             	mov    %r12,%rax
  402433:	48 29 d8             	sub    %rbx,%rax
  402436:	48 83 f8 07          	cmp    $0x7,%rax
  40243a:	7e 96                	jle    4023d2 <_pei386_runtime_relocator+0x22>
  40243c:	8b 13                	mov    (%rbx),%edx
  40243e:	48 83 f8 0b          	cmp    $0xb,%rax
  402442:	0f 8e f9 00 00 00    	jle    402541 <_pei386_runtime_relocator+0x191>
  402448:	85 d2                	test   %edx,%edx
  40244a:	0f 84 b0 01 00 00    	je     402600 <_pei386_runtime_relocator+0x250>
  402450:	48 89 d8             	mov    %rbx,%rax
  402453:	4c 39 e0             	cmp    %r12,%rax
  402456:	0f 83 76 ff ff ff    	jae    4023d2 <_pei386_runtime_relocator+0x22>
  40245c:	49 83 c4 07          	add    $0x7,%r12
  402460:	48 8d 78 08          	lea    0x8(%rax),%rdi
  402464:	4c 8b 2d e5 2f 00 00 	mov    0x2fe5(%rip),%r13        # 405450 <.refptr.__image_base__>
  40246b:	49 29 fc             	sub    %rdi,%r12
  40246e:	49 c1 ec 03          	shr    $0x3,%r12
  402472:	4e 8d 64 e0 08       	lea    0x8(%rax,%r12,8),%r12
  402477:	eb 0b                	jmp    402484 <_pei386_runtime_relocator+0xd4>
  402479:	0f 1f 80 00 00 00 00 	nopl   0x0(%rax)
  402480:	48 83 c7 08          	add    $0x8,%rdi
  402484:	8b 58 04             	mov    0x4(%rax),%ebx
  402487:	44 8b 30             	mov    (%rax),%r14d
  40248a:	4c 01 eb             	add    %r13,%rbx
  40248d:	44 03 33             	add    (%rbx),%r14d
  402490:	48 89 d9             	mov    %rbx,%rcx
  402493:	e8 b8 fd ff ff       	callq  402250 <mark_section_writable>
  402498:	44 89 33             	mov    %r14d,(%rbx)
  40249b:	48 89 f8             	mov    %rdi,%rax
  40249e:	4c 39 e7             	cmp    %r12,%rdi
  4024a1:	75 dd                	jne    402480 <_pei386_runtime_relocator+0xd0>
  4024a3:	8b 15 7b 61 00 00    	mov    0x617b(%rip),%edx        # 408624 <maxSections>
  4024a9:	85 d2                	test   %edx,%edx
  4024ab:	0f 8e 21 ff ff ff    	jle    4023d2 <_pei386_runtime_relocator+0x22>
  4024b1:	31 db                	xor    %ebx,%ebx
  4024b3:	4c 8d 6d b0          	lea    -0x50(%rbp),%r13
  4024b7:	4c 8b 25 c6 6e 00 00 	mov    0x6ec6(%rip),%r12        # 409384 <__imp_VirtualQuery>
  4024be:	48 8b 3d b7 6e 00 00 	mov    0x6eb7(%rip),%rdi        # 40937c <__imp_VirtualProtect>
  4024c5:	eb 37                	jmp    4024fe <_pei386_runtime_relocator+0x14e>
  4024c7:	66 0f 1f 84 00 00 00 	nopw   0x0(%rax,%rax,1)
  4024ce:	00 00 
  4024d0:	48 8b 05 51 61 00 00 	mov    0x6151(%rip),%rax        # 408628 <the_secs>
  4024d7:	48 8b 55 c8          	mov    -0x38(%rbp),%rdx
  4024db:	4c 8d 4d ac          	lea    -0x54(%rbp),%r9
  4024df:	48 8b 4d b0          	mov    -0x50(%rbp),%rcx
  4024e3:	44 8b 04 18          	mov    (%rax,%rbx,1),%r8d
  4024e7:	ff d7                	callq  *%rdi
  4024e9:	8b 15 35 61 00 00    	mov    0x6135(%rip),%edx        # 408624 <maxSections>
  4024ef:	83 c6 01             	add    $0x1,%esi
  4024f2:	48 83 c3 18          	add    $0x18,%rbx
  4024f6:	39 d6                	cmp    %edx,%esi
  4024f8:	0f 8d d4 fe ff ff    	jge    4023d2 <_pei386_runtime_relocator+0x22>
  4024fe:	48 8b 05 23 61 00 00 	mov    0x6123(%rip),%rax        # 408628 <the_secs>
  402505:	48 01 d8             	add    %rbx,%rax
  402508:	8b 08                	mov    (%rax),%ecx
  40250a:	85 c9                	test   %ecx,%ecx
  40250c:	74 e1                	je     4024ef <_pei386_runtime_relocator+0x13f>
  40250e:	48 8b 48 08          	mov    0x8(%rax),%rcx
  402512:	41 b8 30 00 00 00    	mov    $0x30,%r8d
  402518:	4c 89 ea             	mov    %r13,%rdx
  40251b:	41 ff d4             	callq  *%r12
  40251e:	48 85 c0             	test   %rax,%rax
  402521:	75 ad                	jne    4024d0 <_pei386_runtime_relocator+0x120>
  402523:	48 03 1d fe 60 00 00 	add    0x60fe(%rip),%rbx        # 408628 <the_secs>
  40252a:	48 8d 0d 8f 2d 00 00 	lea    0x2d8f(%rip),%rcx        # 4052c0 <.rdata+0x40>
  402531:	48 8b 43 10          	mov    0x10(%rbx),%rax
  402535:	4c 8b 43 08          	mov    0x8(%rbx),%r8
  402539:	8b 50 08             	mov    0x8(%rax),%edx
  40253c:	e8 9f fc ff ff       	callq  4021e0 <__report_error>
  402541:	48 89 d8             	mov    %rbx,%rax
  402544:	85 d2                	test   %edx,%edx
  402546:	0f 85 07 ff ff ff    	jne    402453 <_pei386_runtime_relocator+0xa3>
  40254c:	44 8b 40 04          	mov    0x4(%rax),%r8d
  402550:	45 85 c0             	test   %r8d,%r8d
  402553:	0f 85 fa fe ff ff    	jne    402453 <_pei386_runtime_relocator+0xa3>
  402559:	8b 50 08             	mov    0x8(%rax),%edx
  40255c:	83 fa 01             	cmp    $0x1,%edx
  40255f:	0f 85 21 01 00 00    	jne    402686 <_pei386_runtime_relocator+0x2d6>
  402565:	48 8d 58 0c          	lea    0xc(%rax),%rbx
  402569:	4c 39 e3             	cmp    %r12,%rbx
  40256c:	0f 83 60 fe ff ff    	jae    4023d2 <_pei386_runtime_relocator+0x22>
  402572:	4c 8b 2d d7 2e 00 00 	mov    0x2ed7(%rip),%r13        # 405450 <.refptr.__image_base__>
  402579:	49 be 00 00 00 00 ff 	movabs $0xffffffff00000000,%r14
  402580:	ff ff ff 
  402583:	eb 39                	jmp    4025be <_pei386_runtime_relocator+0x20e>
  402585:	0f 86 c5 00 00 00    	jbe    402650 <_pei386_runtime_relocator+0x2a0>
  40258b:	83 fa 20             	cmp    $0x20,%edx
  40258e:	0f 84 8e 00 00 00    	je     402622 <_pei386_runtime_relocator+0x272>
  402594:	83 fa 40             	cmp    $0x40,%edx
  402597:	0f 85 f5 00 00 00    	jne    402692 <_pei386_runtime_relocator+0x2e2>
  40259d:	48 8b 0f             	mov    (%rdi),%rcx
  4025a0:	48 29 c1             	sub    %rax,%rcx
  4025a3:	49 01 cf             	add    %rcx,%r15
  4025a6:	48 89 f9             	mov    %rdi,%rcx
  4025a9:	e8 a2 fc ff ff       	callq  402250 <mark_section_writable>
  4025ae:	4c 89 3f             	mov    %r15,(%rdi)
  4025b1:	48 83 c3 0c          	add    $0xc,%rbx
  4025b5:	4c 39 e3             	cmp    %r12,%rbx
  4025b8:	0f 83 e5 fe ff ff    	jae    4024a3 <_pei386_runtime_relocator+0xf3>
  4025be:	8b 03                	mov    (%rbx),%eax
  4025c0:	8b 7b 04             	mov    0x4(%rbx),%edi
  4025c3:	0f b6 53 08          	movzbl 0x8(%rbx),%edx
  4025c7:	4c 01 e8             	add    %r13,%rax
  4025ca:	4c 01 ef             	add    %r13,%rdi
  4025cd:	4c 8b 38             	mov    (%rax),%r15
  4025d0:	83 fa 10             	cmp    $0x10,%edx
  4025d3:	75 b0                	jne    402585 <_pei386_runtime_relocator+0x1d5>
  4025d5:	0f b7 17             	movzwl (%rdi),%edx
  4025d8:	48 89 f9             	mov    %rdi,%rcx
  4025db:	49 89 d0             	mov    %rdx,%r8
  4025de:	49 81 c8 00 00 ff ff 	or     $0xffffffffffff0000,%r8
  4025e5:	66 85 d2             	test   %dx,%dx
  4025e8:	49 0f 48 d0          	cmovs  %r8,%rdx
  4025ec:	48 29 c2             	sub    %rax,%rdx
  4025ef:	49 01 d7             	add    %rdx,%r15
  4025f2:	e8 59 fc ff ff       	callq  402250 <mark_section_writable>
  4025f7:	66 44 89 3f          	mov    %r15w,(%rdi)
  4025fb:	eb b4                	jmp    4025b1 <_pei386_runtime_relocator+0x201>
  4025fd:	0f 1f 00             	nopl   (%rax)
  402600:	44 8b 53 04          	mov    0x4(%rbx),%r10d
  402604:	45 85 d2             	test   %r10d,%r10d
  402607:	0f 85 43 fe ff ff    	jne    402450 <_pei386_runtime_relocator+0xa0>
  40260d:	44 8b 4b 08          	mov    0x8(%rbx),%r9d
  402611:	45 85 c9             	test   %r9d,%r9d
  402614:	75 68                	jne    40267e <_pei386_runtime_relocator+0x2ce>
  402616:	8b 53 0c             	mov    0xc(%rbx),%edx
  402619:	48 8d 43 0c          	lea    0xc(%rbx),%rax
  40261d:	e9 22 ff ff ff       	jmpq   402544 <_pei386_runtime_relocator+0x194>
  402622:	8b 17                	mov    (%rdi),%edx
  402624:	48 89 d1             	mov    %rdx,%rcx
  402627:	4c 09 f2             	or     %r14,%rdx
  40262a:	85 c9                	test   %ecx,%ecx
  40262c:	48 0f 49 d1          	cmovns %rcx,%rdx
  402630:	48 89 f9             	mov    %rdi,%rcx
  402633:	48 29 c2             	sub    %rax,%rdx
  402636:	49 01 d7             	add    %rdx,%r15
  402639:	e8 12 fc ff ff       	callq  402250 <mark_section_writable>
  40263e:	44 89 3f             	mov    %r15d,(%rdi)
  402641:	e9 6b ff ff ff       	jmpq   4025b1 <_pei386_runtime_relocator+0x201>
  402646:	66 2e 0f 1f 84 00 00 	nopw   %cs:0x0(%rax,%rax,1)
  40264d:	00 00 00 
  402650:	83 fa 08             	cmp    $0x8,%edx
  402653:	75 3d                	jne    402692 <_pei386_runtime_relocator+0x2e2>
  402655:	0f b6 17             	movzbl (%rdi),%edx
  402658:	48 89 f9             	mov    %rdi,%rcx
  40265b:	49 89 d0             	mov    %rdx,%r8
  40265e:	49 81 c8 00 ff ff ff 	or     $0xffffffffffffff00,%r8
  402665:	84 d2                	test   %dl,%dl
  402667:	49 0f 48 d0          	cmovs  %r8,%rdx
  40266b:	48 29 c2             	sub    %rax,%rdx
  40266e:	49 01 d7             	add    %rdx,%r15
  402671:	e8 da fb ff ff       	callq  402250 <mark_section_writable>
  402676:	44 88 3f             	mov    %r15b,(%rdi)
  402679:	e9 33 ff ff ff       	jmpq   4025b1 <_pei386_runtime_relocator+0x201>
  40267e:	48 89 d8             	mov    %rbx,%rax
  402681:	e9 d3 fe ff ff       	jmpq   402559 <_pei386_runtime_relocator+0x1a9>
  402686:	48 8d 0d 93 2c 00 00 	lea    0x2c93(%rip),%rcx        # 405320 <.rdata+0xa0>
  40268d:	e8 4e fb ff ff       	callq  4021e0 <__report_error>
  402692:	48 8d 0d bf 2c 00 00 	lea    0x2cbf(%rip),%rcx        # 405358 <.rdata+0xd8>
  402699:	e8 42 fb ff ff       	callq  4021e0 <__report_error>
  40269e:	90                   	nop
  40269f:	90                   	nop

00000000004026a0 <__mingw_SEH_error_handler>:
  4026a0:	48 83 ec 28          	sub    $0x28,%rsp
  4026a4:	8b 01                	mov    (%rcx),%eax
  4026a6:	3d 91 00 00 c0       	cmp    $0xc0000091,%eax
  4026ab:	77 63                	ja     402710 <__mingw_SEH_error_handler+0x70>
  4026ad:	3d 8d 00 00 c0       	cmp    $0xc000008d,%eax
  4026b2:	73 7b                	jae    40272f <__mingw_SEH_error_handler+0x8f>
  4026b4:	3d 08 00 00 c0       	cmp    $0xc0000008,%eax
  4026b9:	0f 84 05 01 00 00    	je     4027c4 <__mingw_SEH_error_handler+0x124>
  4026bf:	0f 87 cb 00 00 00    	ja     402790 <__mingw_SEH_error_handler+0xf0>
  4026c5:	3d 02 00 00 80       	cmp    $0x80000002,%eax
  4026ca:	0f 84 f4 00 00 00    	je     4027c4 <__mingw_SEH_error_handler+0x124>
  4026d0:	3d 05 00 00 c0       	cmp    $0xc0000005,%eax
  4026d5:	0f 85 c3 00 00 00    	jne    40279e <__mingw_SEH_error_handler+0xfe>
  4026db:	31 d2                	xor    %edx,%edx
  4026dd:	b9 0b 00 00 00       	mov    $0xb,%ecx
  4026e2:	e8 31 0b 00 00       	callq  403218 <signal>
  4026e7:	48 83 f8 01          	cmp    $0x1,%rax
  4026eb:	0f 84 2f 01 00 00    	je     402820 <__mingw_SEH_error_handler+0x180>
  4026f1:	48 85 c0             	test   %rax,%rax
  4026f4:	0f 84 3c 01 00 00    	je     402836 <__mingw_SEH_error_handler+0x196>
  4026fa:	b9 0b 00 00 00       	mov    $0xb,%ecx
  4026ff:	ff d0                	callq  *%rax
  402701:	31 c0                	xor    %eax,%eax
  402703:	48 83 c4 28          	add    $0x28,%rsp
  402707:	c3                   	retq   
  402708:	0f 1f 84 00 00 00 00 	nopl   0x0(%rax,%rax,1)
  40270f:	00 
  402710:	3d 94 00 00 c0       	cmp    $0xc0000094,%eax
  402715:	0f 84 b5 00 00 00    	je     4027d0 <__mingw_SEH_error_handler+0x130>
  40271b:	77 37                	ja     402754 <__mingw_SEH_error_handler+0xb4>
  40271d:	3d 92 00 00 c0       	cmp    $0xc0000092,%eax
  402722:	0f 84 9c 00 00 00    	je     4027c4 <__mingw_SEH_error_handler+0x124>
  402728:	3d 93 00 00 c0       	cmp    $0xc0000093,%eax
  40272d:	75 6f                	jne    40279e <__mingw_SEH_error_handler+0xfe>
  40272f:	31 d2                	xor    %edx,%edx
  402731:	b9 08 00 00 00       	mov    $0x8,%ecx
  402736:	e8 dd 0a 00 00       	callq  403218 <signal>
  40273b:	48 83 f8 01          	cmp    $0x1,%rax
  40273f:	74 6f                	je     4027b0 <__mingw_SEH_error_handler+0x110>
  402741:	48 85 c0             	test   %rax,%rax
  402744:	74 58                	je     40279e <__mingw_SEH_error_handler+0xfe>
  402746:	b9 08 00 00 00       	mov    $0x8,%ecx
  40274b:	ff d0                	callq  *%rax
  40274d:	31 c0                	xor    %eax,%eax
  40274f:	48 83 c4 28          	add    $0x28,%rsp
  402753:	c3                   	retq   
  402754:	3d 95 00 00 c0       	cmp    $0xc0000095,%eax
  402759:	74 69                	je     4027c4 <__mingw_SEH_error_handler+0x124>
  40275b:	3d 96 00 00 c0       	cmp    $0xc0000096,%eax
  402760:	75 3c                	jne    40279e <__mingw_SEH_error_handler+0xfe>
  402762:	31 d2                	xor    %edx,%edx
  402764:	b9 04 00 00 00       	mov    $0x4,%ecx
  402769:	e8 aa 0a 00 00       	callq  403218 <signal>
  40276e:	48 83 f8 01          	cmp    $0x1,%rax
  402772:	0f 84 88 00 00 00    	je     402800 <__mingw_SEH_error_handler+0x160>
  402778:	48 85 c0             	test   %rax,%rax
  40277b:	0f 84 b5 00 00 00    	je     402836 <__mingw_SEH_error_handler+0x196>
  402781:	b9 04 00 00 00       	mov    $0x4,%ecx
  402786:	ff d0                	callq  *%rax
  402788:	31 c0                	xor    %eax,%eax
  40278a:	48 83 c4 28          	add    $0x28,%rsp
  40278e:	c3                   	retq   
  40278f:	90                   	nop
  402790:	3d 1d 00 00 c0       	cmp    $0xc000001d,%eax
  402795:	74 cb                	je     402762 <__mingw_SEH_error_handler+0xc2>
  402797:	3d 8c 00 00 c0       	cmp    $0xc000008c,%eax
  40279c:	74 26                	je     4027c4 <__mingw_SEH_error_handler+0x124>
  40279e:	b8 01 00 00 00       	mov    $0x1,%eax
  4027a3:	48 83 c4 28          	add    $0x28,%rsp
  4027a7:	c3                   	retq   
  4027a8:	0f 1f 84 00 00 00 00 	nopl   0x0(%rax,%rax,1)
  4027af:	00 
  4027b0:	ba 01 00 00 00       	mov    $0x1,%edx
  4027b5:	b9 08 00 00 00       	mov    $0x8,%ecx
  4027ba:	e8 59 0a 00 00       	callq  403218 <signal>
  4027bf:	e8 ec f9 ff ff       	callq  4021b0 <_fpreset>
  4027c4:	31 c0                	xor    %eax,%eax
  4027c6:	48 83 c4 28          	add    $0x28,%rsp
  4027ca:	c3                   	retq   
  4027cb:	0f 1f 44 00 00       	nopl   0x0(%rax,%rax,1)
  4027d0:	31 d2                	xor    %edx,%edx
  4027d2:	b9 08 00 00 00       	mov    $0x8,%ecx
  4027d7:	e8 3c 0a 00 00       	callq  403218 <signal>
  4027dc:	48 83 f8 01          	cmp    $0x1,%rax
  4027e0:	0f 85 5b ff ff ff    	jne    402741 <__mingw_SEH_error_handler+0xa1>
  4027e6:	ba 01 00 00 00       	mov    $0x1,%edx
  4027eb:	b9 08 00 00 00       	mov    $0x8,%ecx
  4027f0:	e8 23 0a 00 00       	callq  403218 <signal>
  4027f5:	31 c0                	xor    %eax,%eax
  4027f7:	e9 07 ff ff ff       	jmpq   402703 <__mingw_SEH_error_handler+0x63>
  4027fc:	0f 1f 40 00          	nopl   0x0(%rax)
  402800:	ba 01 00 00 00       	mov    $0x1,%edx
  402805:	b9 04 00 00 00       	mov    $0x4,%ecx
  40280a:	e8 09 0a 00 00       	callq  403218 <signal>
  40280f:	31 c0                	xor    %eax,%eax
  402811:	e9 ed fe ff ff       	jmpq   402703 <__mingw_SEH_error_handler+0x63>
  402816:	66 2e 0f 1f 84 00 00 	nopw   %cs:0x0(%rax,%rax,1)
  40281d:	00 00 00 
  402820:	ba 01 00 00 00       	mov    $0x1,%edx
  402825:	b9 0b 00 00 00       	mov    $0xb,%ecx
  40282a:	e8 e9 09 00 00       	callq  403218 <signal>
  40282f:	31 c0                	xor    %eax,%eax
  402831:	e9 cd fe ff ff       	jmpq   402703 <__mingw_SEH_error_handler+0x63>
  402836:	b8 04 00 00 00       	mov    $0x4,%eax
  40283b:	e9 c3 fe ff ff       	jmpq   402703 <__mingw_SEH_error_handler+0x63>

0000000000402840 <__mingw_init_ehandler>:
  402840:	41 54                	push   %r12
  402842:	55                   	push   %rbp
  402843:	57                   	push   %rdi
  402844:	56                   	push   %rsi
  402845:	53                   	push   %rbx
  402846:	48 83 ec 20          	sub    $0x20,%rsp
  40284a:	e8 f1 07 00 00       	callq  403040 <_GetPEImageBase>
  40284f:	48 89 c5             	mov    %rax,%rbp
  402852:	8b 05 f0 5d 00 00    	mov    0x5df0(%rip),%eax        # 408648 <was_here.93776>
  402858:	85 c0                	test   %eax,%eax
  40285a:	75 25                	jne    402881 <__mingw_init_ehandler+0x41>
  40285c:	48 85 ed             	test   %rbp,%rbp
  40285f:	74 20                	je     402881 <__mingw_init_ehandler+0x41>
  402861:	48 8d 0d 28 2b 00 00 	lea    0x2b28(%rip),%rcx        # 405390 <.rdata>
  402868:	c7 05 d6 5d 00 00 01 	movl   $0x1,0x5dd6(%rip)        # 408648 <was_here.93776>
  40286f:	00 00 00 
  402872:	e8 19 06 00 00       	callq  402e90 <_FindPESectionByName>
  402877:	48 85 c0             	test   %rax,%rax
  40287a:	74 14                	je     402890 <__mingw_init_ehandler+0x50>
  40287c:	b8 01 00 00 00       	mov    $0x1,%eax
  402881:	48 83 c4 20          	add    $0x20,%rsp
  402885:	5b                   	pop    %rbx
  402886:	5e                   	pop    %rsi
  402887:	5f                   	pop    %rdi
  402888:	5d                   	pop    %rbp
  402889:	41 5c                	pop    %r12
  40288b:	c3                   	retq   
  40288c:	0f 1f 40 00          	nopl   0x0(%rax)
  402890:	48 8d 1d c9 5e 00 00 	lea    0x5ec9(%rip),%rbx        # 408760 <emu_pdata>
  402897:	48 8d 15 c2 5d 00 00 	lea    0x5dc2(%rip),%rdx        # 408660 <emu_xdata>
  40289e:	b9 30 00 00 00       	mov    $0x30,%ecx
  4028a3:	31 f6                	xor    %esi,%esi
  4028a5:	48 89 df             	mov    %rbx,%rdi
  4028a8:	4c 8d 25 f1 fd ff ff 	lea    -0x20f(%rip),%r12        # 4026a0 <__mingw_SEH_error_handler>
  4028af:	f3 48 ab             	rep stos %rax,%es:(%rdi)
  4028b2:	b9 20 00 00 00       	mov    $0x20,%ecx
  4028b7:	48 89 d7             	mov    %rdx,%rdi
  4028ba:	49 29 ec             	sub    %rbp,%r12
  4028bd:	f3 48 ab             	rep stos %rax,%es:(%rdi)
  4028c0:	48 89 d7             	mov    %rdx,%rdi
  4028c3:	eb 2e                	jmp    4028f3 <__mingw_init_ehandler+0xb3>
  4028c5:	c6 07 09             	movb   $0x9,(%rdi)
  4028c8:	48 83 c6 01          	add    $0x1,%rsi
  4028cc:	48 83 c3 0c          	add    $0xc,%rbx
  4028d0:	44 89 67 04          	mov    %r12d,0x4(%rdi)
  4028d4:	8b 48 0c             	mov    0xc(%rax),%ecx
  4028d7:	89 4b f4             	mov    %ecx,-0xc(%rbx)
  4028da:	03 48 08             	add    0x8(%rax),%ecx
  4028dd:	48 89 f8             	mov    %rdi,%rax
  4028e0:	48 83 c7 08          	add    $0x8,%rdi
  4028e4:	48 29 e8             	sub    %rbp,%rax
  4028e7:	89 4b f8             	mov    %ecx,-0x8(%rbx)
  4028ea:	89 43 fc             	mov    %eax,-0x4(%rbx)
  4028ed:	48 83 fe 20          	cmp    $0x20,%rsi
  4028f1:	74 32                	je     402925 <__mingw_init_ehandler+0xe5>
  4028f3:	48 89 f1             	mov    %rsi,%rcx
  4028f6:	e8 e5 06 00 00       	callq  402fe0 <_FindPESectionExec>
  4028fb:	48 85 c0             	test   %rax,%rax
  4028fe:	75 c5                	jne    4028c5 <__mingw_init_ehandler+0x85>
  402900:	89 f2                	mov    %esi,%edx
  402902:	48 85 f6             	test   %rsi,%rsi
  402905:	0f 84 71 ff ff ff    	je     40287c <__mingw_init_ehandler+0x3c>
  40290b:	0f 1f 44 00 00       	nopl   0x0(%rax,%rax,1)
  402910:	49 89 e8             	mov    %rbp,%r8
  402913:	48 8d 0d 46 5e 00 00 	lea    0x5e46(%rip),%rcx        # 408760 <emu_pdata>
  40291a:	ff 15 fc 69 00 00    	callq  *0x69fc(%rip)        # 40931c <__imp_RtlAddFunctionTable>
  402920:	e9 57 ff ff ff       	jmpq   40287c <__mingw_init_ehandler+0x3c>
  402925:	ba 20 00 00 00       	mov    $0x20,%edx
  40292a:	eb e4                	jmp    402910 <__mingw_init_ehandler+0xd0>
  40292c:	0f 1f 40 00          	nopl   0x0(%rax)

0000000000402930 <_gnu_exception_handler>:
  402930:	53                   	push   %rbx
  402931:	48 83 ec 20          	sub    $0x20,%rsp
  402935:	48 8b 11             	mov    (%rcx),%rdx
  402938:	8b 02                	mov    (%rdx),%eax
  40293a:	48 89 cb             	mov    %rcx,%rbx
  40293d:	89 c1                	mov    %eax,%ecx
  40293f:	81 e1 ff ff ff 20    	and    $0x20ffffff,%ecx
  402945:	81 f9 43 43 47 20    	cmp    $0x20474343,%ecx
  40294b:	0f 84 bf 00 00 00    	je     402a10 <_gnu_exception_handler+0xe0>
  402951:	3d 91 00 00 c0       	cmp    $0xc0000091,%eax
  402956:	77 68                	ja     4029c0 <_gnu_exception_handler+0x90>
  402958:	3d 8d 00 00 c0       	cmp    $0xc000008d,%eax
  40295d:	73 7c                	jae    4029db <_gnu_exception_handler+0xab>
  40295f:	3d 08 00 00 c0       	cmp    $0xc0000008,%eax
  402964:	0f 84 b0 00 00 00    	je     402a1a <_gnu_exception_handler+0xea>
  40296a:	0f 87 f4 00 00 00    	ja     402a64 <_gnu_exception_handler+0x134>
  402970:	3d 02 00 00 80       	cmp    $0x80000002,%eax
  402975:	0f 84 9f 00 00 00    	je     402a1a <_gnu_exception_handler+0xea>
  40297b:	3d 05 00 00 c0       	cmp    $0xc0000005,%eax
  402980:	75 1f                	jne    4029a1 <_gnu_exception_handler+0x71>
  402982:	31 d2                	xor    %edx,%edx
  402984:	b9 0b 00 00 00       	mov    $0xb,%ecx
  402989:	e8 8a 08 00 00       	callq  403218 <signal>
  40298e:	48 83 f8 01          	cmp    $0x1,%rax
  402992:	0f 84 51 01 00 00    	je     402ae9 <_gnu_exception_handler+0x1b9>
  402998:	48 85 c0             	test   %rax,%rax
  40299b:	0f 85 0f 01 00 00    	jne    402ab0 <_gnu_exception_handler+0x180>
  4029a1:	48 8b 05 98 5c 00 00 	mov    0x5c98(%rip),%rax        # 408640 <__mingw_oldexcpt_handler>
  4029a8:	48 85 c0             	test   %rax,%rax
  4029ab:	0f 84 10 01 00 00    	je     402ac1 <_gnu_exception_handler+0x191>
  4029b1:	48 89 d9             	mov    %rbx,%rcx
  4029b4:	48 83 c4 20          	add    $0x20,%rsp
  4029b8:	5b                   	pop    %rbx
  4029b9:	48 ff e0             	rex.W jmpq *%rax
  4029bc:	0f 1f 40 00          	nopl   0x0(%rax)
  4029c0:	3d 94 00 00 c0       	cmp    $0xc0000094,%eax
  4029c5:	0f 84 b5 00 00 00    	je     402a80 <_gnu_exception_handler+0x150>
  4029cb:	77 58                	ja     402a25 <_gnu_exception_handler+0xf5>
  4029cd:	3d 92 00 00 c0       	cmp    $0xc0000092,%eax
  4029d2:	74 46                	je     402a1a <_gnu_exception_handler+0xea>
  4029d4:	3d 93 00 00 c0       	cmp    $0xc0000093,%eax
  4029d9:	75 c6                	jne    4029a1 <_gnu_exception_handler+0x71>
  4029db:	31 d2                	xor    %edx,%edx
  4029dd:	b9 08 00 00 00       	mov    $0x8,%ecx
  4029e2:	e8 31 08 00 00       	callq  403218 <signal>
  4029e7:	48 83 f8 01          	cmp    $0x1,%rax
  4029eb:	0f 84 df 00 00 00    	je     402ad0 <_gnu_exception_handler+0x1a0>
  4029f1:	48 85 c0             	test   %rax,%rax
  4029f4:	74 ab                	je     4029a1 <_gnu_exception_handler+0x71>
  4029f6:	b9 08 00 00 00       	mov    $0x8,%ecx
  4029fb:	ff d0                	callq  *%rax
  4029fd:	b8 ff ff ff ff       	mov    $0xffffffff,%eax
  402a02:	48 83 c4 20          	add    $0x20,%rsp
  402a06:	5b                   	pop    %rbx
  402a07:	c3                   	retq   
  402a08:	0f 1f 84 00 00 00 00 	nopl   0x0(%rax,%rax,1)
  402a0f:	00 
  402a10:	f6 42 04 01          	testb  $0x1,0x4(%rdx)
  402a14:	0f 85 37 ff ff ff    	jne    402951 <_gnu_exception_handler+0x21>
  402a1a:	b8 ff ff ff ff       	mov    $0xffffffff,%eax
  402a1f:	48 83 c4 20          	add    $0x20,%rsp
  402a23:	5b                   	pop    %rbx
  402a24:	c3                   	retq   
  402a25:	3d 95 00 00 c0       	cmp    $0xc0000095,%eax
  402a2a:	74 ee                	je     402a1a <_gnu_exception_handler+0xea>
  402a2c:	3d 96 00 00 c0       	cmp    $0xc0000096,%eax
  402a31:	0f 85 6a ff ff ff    	jne    4029a1 <_gnu_exception_handler+0x71>
  402a37:	31 d2                	xor    %edx,%edx
  402a39:	b9 04 00 00 00       	mov    $0x4,%ecx
  402a3e:	e8 d5 07 00 00       	callq  403218 <signal>
  402a43:	48 83 f8 01          	cmp    $0x1,%rax
  402a47:	0f 84 b3 00 00 00    	je     402b00 <_gnu_exception_handler+0x1d0>
  402a4d:	48 85 c0             	test   %rax,%rax
  402a50:	0f 84 4b ff ff ff    	je     4029a1 <_gnu_exception_handler+0x71>
  402a56:	b9 04 00 00 00       	mov    $0x4,%ecx
  402a5b:	ff d0                	callq  *%rax
  402a5d:	b8 ff ff ff ff       	mov    $0xffffffff,%eax
  402a62:	eb 9e                	jmp    402a02 <_gnu_exception_handler+0xd2>
  402a64:	3d 1d 00 00 c0       	cmp    $0xc000001d,%eax
  402a69:	74 cc                	je     402a37 <_gnu_exception_handler+0x107>
  402a6b:	3d 8c 00 00 c0       	cmp    $0xc000008c,%eax
  402a70:	0f 85 2b ff ff ff    	jne    4029a1 <_gnu_exception_handler+0x71>
  402a76:	eb a2                	jmp    402a1a <_gnu_exception_handler+0xea>
  402a78:	0f 1f 84 00 00 00 00 	nopl   0x0(%rax,%rax,1)
  402a7f:	00 
  402a80:	31 d2                	xor    %edx,%edx
  402a82:	b9 08 00 00 00       	mov    $0x8,%ecx
  402a87:	e8 8c 07 00 00       	callq  403218 <signal>
  402a8c:	48 83 f8 01          	cmp    $0x1,%rax
  402a90:	0f 85 5b ff ff ff    	jne    4029f1 <_gnu_exception_handler+0xc1>
  402a96:	ba 01 00 00 00       	mov    $0x1,%edx
  402a9b:	b9 08 00 00 00       	mov    $0x8,%ecx
  402aa0:	e8 73 07 00 00       	callq  403218 <signal>
  402aa5:	b8 ff ff ff ff       	mov    $0xffffffff,%eax
  402aaa:	e9 53 ff ff ff       	jmpq   402a02 <_gnu_exception_handler+0xd2>
  402aaf:	90                   	nop
  402ab0:	b9 0b 00 00 00       	mov    $0xb,%ecx
  402ab5:	ff d0                	callq  *%rax
  402ab7:	b8 ff ff ff ff       	mov    $0xffffffff,%eax
  402abc:	e9 41 ff ff ff       	jmpq   402a02 <_gnu_exception_handler+0xd2>
  402ac1:	31 c0                	xor    %eax,%eax
  402ac3:	e9 3a ff ff ff       	jmpq   402a02 <_gnu_exception_handler+0xd2>
  402ac8:	0f 1f 84 00 00 00 00 	nopl   0x0(%rax,%rax,1)
  402acf:	00 
  402ad0:	ba 01 00 00 00       	mov    $0x1,%edx
  402ad5:	b9 08 00 00 00       	mov    $0x8,%ecx
  402ada:	e8 39 07 00 00       	callq  403218 <signal>
  402adf:	e8 cc f6 ff ff       	callq  4021b0 <_fpreset>
  402ae4:	e9 31 ff ff ff       	jmpq   402a1a <_gnu_exception_handler+0xea>
  402ae9:	ba 01 00 00 00       	mov    $0x1,%edx
  402aee:	b9 0b 00 00 00       	mov    $0xb,%ecx
  402af3:	e8 20 07 00 00       	callq  403218 <signal>
  402af8:	83 c8 ff             	or     $0xffffffff,%eax
  402afb:	e9 02 ff ff ff       	jmpq   402a02 <_gnu_exception_handler+0xd2>
  402b00:	ba 01 00 00 00       	mov    $0x1,%edx
  402b05:	b9 04 00 00 00       	mov    $0x4,%ecx
  402b0a:	e8 09 07 00 00       	callq  403218 <signal>
  402b0f:	83 c8 ff             	or     $0xffffffff,%eax
  402b12:	e9 eb fe ff ff       	jmpq   402a02 <_gnu_exception_handler+0xd2>
  402b17:	90                   	nop
  402b18:	90                   	nop
  402b19:	90                   	nop
  402b1a:	90                   	nop
  402b1b:	90                   	nop
  402b1c:	90                   	nop
  402b1d:	90                   	nop
  402b1e:	90                   	nop
  402b1f:	90                   	nop

0000000000402b20 <___w64_mingwthr_add_key_dtor>:
  402b20:	55                   	push   %rbp
  402b21:	57                   	push   %rdi
  402b22:	56                   	push   %rsi
  402b23:	53                   	push   %rbx
  402b24:	48 83 ec 28          	sub    $0x28,%rsp
  402b28:	8b 05 ba 5d 00 00    	mov    0x5dba(%rip),%eax        # 4088e8 <__mingwthr_cs_init>
  402b2e:	31 f6                	xor    %esi,%esi
  402b30:	89 cd                	mov    %ecx,%ebp
  402b32:	48 89 d7             	mov    %rdx,%rdi
  402b35:	85 c0                	test   %eax,%eax
  402b37:	75 0b                	jne    402b44 <___w64_mingwthr_add_key_dtor+0x24>
  402b39:	89 f0                	mov    %esi,%eax
  402b3b:	48 83 c4 28          	add    $0x28,%rsp
  402b3f:	5b                   	pop    %rbx
  402b40:	5e                   	pop    %rsi
  402b41:	5f                   	pop    %rdi
  402b42:	5d                   	pop    %rbp
  402b43:	c3                   	retq   
  402b44:	ba 18 00 00 00       	mov    $0x18,%edx
  402b49:	b9 01 00 00 00       	mov    $0x1,%ecx
  402b4e:	e8 15 07 00 00       	callq  403268 <calloc>
  402b53:	48 89 c3             	mov    %rax,%rbx
  402b56:	48 85 c0             	test   %rax,%rax
  402b59:	74 3d                	je     402b98 <___w64_mingwthr_add_key_dtor+0x78>
  402b5b:	89 28                	mov    %ebp,(%rax)
  402b5d:	48 8d 0d 9c 5d 00 00 	lea    0x5d9c(%rip),%rcx        # 408900 <__mingwthr_cs>
  402b64:	48 89 78 08          	mov    %rdi,0x8(%rax)
  402b68:	ff 15 3e 67 00 00    	callq  *0x673e(%rip)        # 4092ac <__imp_EnterCriticalSection>
  402b6e:	48 8b 05 6b 5d 00 00 	mov    0x5d6b(%rip),%rax        # 4088e0 <key_dtor_list>
  402b75:	48 8d 0d 84 5d 00 00 	lea    0x5d84(%rip),%rcx        # 408900 <__mingwthr_cs>
  402b7c:	48 89 1d 5d 5d 00 00 	mov    %rbx,0x5d5d(%rip)        # 4088e0 <key_dtor_list>
  402b83:	48 89 43 10          	mov    %rax,0x10(%rbx)
  402b87:	ff 15 77 67 00 00    	callq  *0x6777(%rip)        # 409304 <__imp_LeaveCriticalSection>
  402b8d:	89 f0                	mov    %esi,%eax
  402b8f:	48 83 c4 28          	add    $0x28,%rsp
  402b93:	5b                   	pop    %rbx
  402b94:	5e                   	pop    %rsi
  402b95:	5f                   	pop    %rdi
  402b96:	5d                   	pop    %rbp
  402b97:	c3                   	retq   
  402b98:	be ff ff ff ff       	mov    $0xffffffff,%esi
  402b9d:	eb 9a                	jmp    402b39 <___w64_mingwthr_add_key_dtor+0x19>
  402b9f:	90                   	nop

0000000000402ba0 <___w64_mingwthr_remove_key_dtor>:
  402ba0:	53                   	push   %rbx
  402ba1:	48 83 ec 20          	sub    $0x20,%rsp
  402ba5:	8b 05 3d 5d 00 00    	mov    0x5d3d(%rip),%eax        # 4088e8 <__mingwthr_cs_init>
  402bab:	89 cb                	mov    %ecx,%ebx
  402bad:	85 c0                	test   %eax,%eax
  402baf:	75 0f                	jne    402bc0 <___w64_mingwthr_remove_key_dtor+0x20>
  402bb1:	31 c0                	xor    %eax,%eax
  402bb3:	48 83 c4 20          	add    $0x20,%rsp
  402bb7:	5b                   	pop    %rbx
  402bb8:	c3                   	retq   
  402bb9:	0f 1f 80 00 00 00 00 	nopl   0x0(%rax)
  402bc0:	48 8d 0d 39 5d 00 00 	lea    0x5d39(%rip),%rcx        # 408900 <__mingwthr_cs>
  402bc7:	ff 15 df 66 00 00    	callq  *0x66df(%rip)        # 4092ac <__imp_EnterCriticalSection>
  402bcd:	48 8b 05 0c 5d 00 00 	mov    0x5d0c(%rip),%rax        # 4088e0 <key_dtor_list>
  402bd4:	48 85 c0             	test   %rax,%rax
  402bd7:	74 1a                	je     402bf3 <___w64_mingwthr_remove_key_dtor+0x53>
  402bd9:	8b 10                	mov    (%rax),%edx
  402bdb:	39 d3                	cmp    %edx,%ebx
  402bdd:	75 0b                	jne    402bea <___w64_mingwthr_remove_key_dtor+0x4a>
  402bdf:	eb 4f                	jmp    402c30 <___w64_mingwthr_remove_key_dtor+0x90>
  402be1:	8b 11                	mov    (%rcx),%edx
  402be3:	39 da                	cmp    %ebx,%edx
  402be5:	74 29                	je     402c10 <___w64_mingwthr_remove_key_dtor+0x70>
  402be7:	48 89 c8             	mov    %rcx,%rax
  402bea:	48 8b 48 10          	mov    0x10(%rax),%rcx
  402bee:	48 85 c9             	test   %rcx,%rcx
  402bf1:	75 ee                	jne    402be1 <___w64_mingwthr_remove_key_dtor+0x41>
  402bf3:	48 8d 0d 06 5d 00 00 	lea    0x5d06(%rip),%rcx        # 408900 <__mingwthr_cs>
  402bfa:	ff 15 04 67 00 00    	callq  *0x6704(%rip)        # 409304 <__imp_LeaveCriticalSection>
  402c00:	31 c0                	xor    %eax,%eax
  402c02:	48 83 c4 20          	add    $0x20,%rsp
  402c06:	5b                   	pop    %rbx
  402c07:	c3                   	retq   
  402c08:	0f 1f 84 00 00 00 00 	nopl   0x0(%rax,%rax,1)
  402c0f:	00 
  402c10:	48 8b 51 10          	mov    0x10(%rcx),%rdx
  402c14:	48 89 50 10          	mov    %rdx,0x10(%rax)
  402c18:	e8 33 06 00 00       	callq  403250 <free>
  402c1d:	48 8d 0d dc 5c 00 00 	lea    0x5cdc(%rip),%rcx        # 408900 <__mingwthr_cs>
  402c24:	ff 15 da 66 00 00    	callq  *0x66da(%rip)        # 409304 <__imp_LeaveCriticalSection>
  402c2a:	eb d4                	jmp    402c00 <___w64_mingwthr_remove_key_dtor+0x60>
  402c2c:	0f 1f 40 00          	nopl   0x0(%rax)
  402c30:	48 8b 50 10          	mov    0x10(%rax),%rdx
  402c34:	48 89 c1             	mov    %rax,%rcx
  402c37:	48 89 15 a2 5c 00 00 	mov    %rdx,0x5ca2(%rip)        # 4088e0 <key_dtor_list>
  402c3e:	eb d8                	jmp    402c18 <___w64_mingwthr_remove_key_dtor+0x78>

0000000000402c40 <__mingw_TLScallback>:
  402c40:	55                   	push   %rbp
  402c41:	57                   	push   %rdi
  402c42:	56                   	push   %rsi
  402c43:	53                   	push   %rbx
  402c44:	48 83 ec 28          	sub    $0x28,%rsp
  402c48:	83 fa 01             	cmp    $0x1,%edx
  402c4b:	0f 84 f4 00 00 00    	je     402d45 <__mingw_TLScallback+0x105>
  402c51:	0f 82 8c 00 00 00    	jb     402ce3 <__mingw_TLScallback+0xa3>
  402c57:	83 fa 02             	cmp    $0x2,%edx
  402c5a:	74 74                	je     402cd0 <__mingw_TLScallback+0x90>
  402c5c:	83 fa 03             	cmp    $0x3,%edx
  402c5f:	75 74                	jne    402cd5 <__mingw_TLScallback+0x95>
  402c61:	8b 05 81 5c 00 00    	mov    0x5c81(%rip),%eax        # 4088e8 <__mingwthr_cs_init>
  402c67:	85 c0                	test   %eax,%eax
  402c69:	74 6a                	je     402cd5 <__mingw_TLScallback+0x95>
  402c6b:	48 8d 0d 8e 5c 00 00 	lea    0x5c8e(%rip),%rcx        # 408900 <__mingwthr_cs>
  402c72:	ff 15 34 66 00 00    	callq  *0x6634(%rip)        # 4092ac <__imp_EnterCriticalSection>
  402c78:	48 8b 1d 61 5c 00 00 	mov    0x5c61(%rip),%rbx        # 4088e0 <key_dtor_list>
  402c7f:	48 85 db             	test   %rbx,%rbx
  402c82:	74 3a                	je     402cbe <__mingw_TLScallback+0x7e>
  402c84:	48 8b 2d e1 66 00 00 	mov    0x66e1(%rip),%rbp        # 40936c <__imp_TlsGetValue>
  402c8b:	48 8b 3d 42 66 00 00 	mov    0x6642(%rip),%rdi        # 4092d4 <__imp_GetLastError>
  402c92:	8b 0b                	mov    (%rbx),%ecx
  402c94:	ff d5                	callq  *%rbp
  402c96:	48 89 c6             	mov    %rax,%rsi
  402c99:	ff d7                	callq  *%rdi
  402c9b:	85 c0                	test   %eax,%eax
  402c9d:	0f 85 4d 01 00 00    	jne    402df0 <__mingw_TLScallback+0x1b0>
  402ca3:	48 85 f6             	test   %rsi,%rsi
  402ca6:	0f 84 44 01 00 00    	je     402df0 <__mingw_TLScallback+0x1b0>
  402cac:	48 8b 43 08          	mov    0x8(%rbx),%rax
  402cb0:	48 89 f1             	mov    %rsi,%rcx
  402cb3:	ff d0                	callq  *%rax
  402cb5:	48 8b 5b 10          	mov    0x10(%rbx),%rbx
  402cb9:	48 85 db             	test   %rbx,%rbx
  402cbc:	75 d4                	jne    402c92 <__mingw_TLScallback+0x52>
  402cbe:	48 8d 0d 3b 5c 00 00 	lea    0x5c3b(%rip),%rcx        # 408900 <__mingwthr_cs>
  402cc5:	ff 15 39 66 00 00    	callq  *0x6639(%rip)        # 409304 <__imp_LeaveCriticalSection>
  402ccb:	eb 08                	jmp    402cd5 <__mingw_TLScallback+0x95>
  402ccd:	0f 1f 00             	nopl   (%rax)
  402cd0:	e8 db f4 ff ff       	callq  4021b0 <_fpreset>
  402cd5:	b8 01 00 00 00       	mov    $0x1,%eax
  402cda:	48 83 c4 28          	add    $0x28,%rsp
  402cde:	5b                   	pop    %rbx
  402cdf:	5e                   	pop    %rsi
  402ce0:	5f                   	pop    %rdi
  402ce1:	5d                   	pop    %rbp
  402ce2:	c3                   	retq   
  402ce3:	8b 05 ff 5b 00 00    	mov    0x5bff(%rip),%eax        # 4088e8 <__mingwthr_cs_init>
  402ce9:	85 c0                	test   %eax,%eax
  402ceb:	0f 85 8f 00 00 00    	jne    402d80 <__mingw_TLScallback+0x140>
  402cf1:	8b 05 f1 5b 00 00    	mov    0x5bf1(%rip),%eax        # 4088e8 <__mingwthr_cs_init>
  402cf7:	83 f8 01             	cmp    $0x1,%eax
  402cfa:	75 d9                	jne    402cd5 <__mingw_TLScallback+0x95>
  402cfc:	48 8b 0d dd 5b 00 00 	mov    0x5bdd(%rip),%rcx        # 4088e0 <key_dtor_list>
  402d03:	48 85 c9             	test   %rcx,%rcx
  402d06:	74 19                	je     402d21 <__mingw_TLScallback+0xe1>
  402d08:	0f 1f 84 00 00 00 00 	nopl   0x0(%rax,%rax,1)
  402d0f:	00 
  402d10:	48 8b 59 10          	mov    0x10(%rcx),%rbx
  402d14:	e8 37 05 00 00       	callq  403250 <free>
  402d19:	48 89 d9             	mov    %rbx,%rcx
  402d1c:	48 85 db             	test   %rbx,%rbx
  402d1f:	75 ef                	jne    402d10 <__mingw_TLScallback+0xd0>
  402d21:	48 8d 0d d8 5b 00 00 	lea    0x5bd8(%rip),%rcx        # 408900 <__mingwthr_cs>
  402d28:	48 c7 05 ad 5b 00 00 	movq   $0x0,0x5bad(%rip)        # 4088e0 <key_dtor_list>
  402d2f:	00 00 00 00 
  402d33:	c7 05 ab 5b 00 00 00 	movl   $0x0,0x5bab(%rip)        # 4088e8 <__mingwthr_cs_init>
  402d3a:	00 00 00 
  402d3d:	ff 15 59 65 00 00    	callq  *0x6559(%rip)        # 40929c <__imp_DeleteCriticalSection>
  402d43:	eb 90                	jmp    402cd5 <__mingw_TLScallback+0x95>
  402d45:	8b 05 9d 5b 00 00    	mov    0x5b9d(%rip),%eax        # 4088e8 <__mingwthr_cs_init>
  402d4b:	85 c0                	test   %eax,%eax
  402d4d:	74 21                	je     402d70 <__mingw_TLScallback+0x130>
  402d4f:	c7 05 8f 5b 00 00 01 	movl   $0x1,0x5b8f(%rip)        # 4088e8 <__mingwthr_cs_init>
  402d56:	00 00 00 
  402d59:	b8 01 00 00 00       	mov    $0x1,%eax
  402d5e:	48 83 c4 28          	add    $0x28,%rsp
  402d62:	5b                   	pop    %rbx
  402d63:	5e                   	pop    %rsi
  402d64:	5f                   	pop    %rdi
  402d65:	5d                   	pop    %rbp
  402d66:	c3                   	retq   
  402d67:	66 0f 1f 84 00 00 00 	nopw   0x0(%rax,%rax,1)
  402d6e:	00 00 
  402d70:	48 8d 0d 89 5b 00 00 	lea    0x5b89(%rip),%rcx        # 408900 <__mingwthr_cs>
  402d77:	ff 15 7f 65 00 00    	callq  *0x657f(%rip)        # 4092fc <__imp_InitializeCriticalSection>
  402d7d:	eb d0                	jmp    402d4f <__mingw_TLScallback+0x10f>
  402d7f:	90                   	nop
  402d80:	48 8d 0d 79 5b 00 00 	lea    0x5b79(%rip),%rcx        # 408900 <__mingwthr_cs>
  402d87:	ff 15 1f 65 00 00    	callq  *0x651f(%rip)        # 4092ac <__imp_EnterCriticalSection>
  402d8d:	48 8b 1d 4c 5b 00 00 	mov    0x5b4c(%rip),%rbx        # 4088e0 <key_dtor_list>
  402d94:	48 85 db             	test   %rbx,%rbx
  402d97:	74 3b                	je     402dd4 <__mingw_TLScallback+0x194>
  402d99:	48 8b 2d cc 65 00 00 	mov    0x65cc(%rip),%rbp        # 40936c <__imp_TlsGetValue>
  402da0:	48 8b 3d 2d 65 00 00 	mov    0x652d(%rip),%rdi        # 4092d4 <__imp_GetLastError>
  402da7:	66 0f 1f 84 00 00 00 	nopw   0x0(%rax,%rax,1)
  402dae:	00 00 
  402db0:	8b 0b                	mov    (%rbx),%ecx
  402db2:	ff d5                	callq  *%rbp
  402db4:	48 89 c6             	mov    %rax,%rsi
  402db7:	ff d7                	callq  *%rdi
  402db9:	85 c0                	test   %eax,%eax
  402dbb:	75 45                	jne    402e02 <__mingw_TLScallback+0x1c2>
  402dbd:	48 85 f6             	test   %rsi,%rsi
  402dc0:	74 40                	je     402e02 <__mingw_TLScallback+0x1c2>
  402dc2:	48 8b 43 08          	mov    0x8(%rbx),%rax
  402dc6:	48 89 f1             	mov    %rsi,%rcx
  402dc9:	ff d0                	callq  *%rax
  402dcb:	48 8b 5b 10          	mov    0x10(%rbx),%rbx
  402dcf:	48 85 db             	test   %rbx,%rbx
  402dd2:	75 dc                	jne    402db0 <__mingw_TLScallback+0x170>
  402dd4:	48 8d 0d 25 5b 00 00 	lea    0x5b25(%rip),%rcx        # 408900 <__mingwthr_cs>
  402ddb:	ff 15 23 65 00 00    	callq  *0x6523(%rip)        # 409304 <__imp_LeaveCriticalSection>
  402de1:	e9 0b ff ff ff       	jmpq   402cf1 <__mingw_TLScallback+0xb1>
  402de6:	66 2e 0f 1f 84 00 00 	nopw   %cs:0x0(%rax,%rax,1)
  402ded:	00 00 00 
  402df0:	48 8b 5b 10          	mov    0x10(%rbx),%rbx
  402df4:	48 85 db             	test   %rbx,%rbx
  402df7:	0f 85 95 fe ff ff    	jne    402c92 <__mingw_TLScallback+0x52>
  402dfd:	e9 bc fe ff ff       	jmpq   402cbe <__mingw_TLScallback+0x7e>
  402e02:	48 8b 5b 10          	mov    0x10(%rbx),%rbx
  402e06:	48 85 db             	test   %rbx,%rbx
  402e09:	75 a5                	jne    402db0 <__mingw_TLScallback+0x170>
  402e0b:	eb c7                	jmp    402dd4 <__mingw_TLScallback+0x194>
  402e0d:	90                   	nop
  402e0e:	90                   	nop
  402e0f:	90                   	nop

0000000000402e10 <_ValidateImageBase>:
  402e10:	31 c0                	xor    %eax,%eax
  402e12:	66 81 39 4d 5a       	cmpw   $0x5a4d,(%rcx)
  402e17:	74 07                	je     402e20 <_ValidateImageBase+0x10>
  402e19:	c3                   	retq   
  402e1a:	66 0f 1f 44 00 00    	nopw   0x0(%rax,%rax,1)
  402e20:	48 63 51 3c          	movslq 0x3c(%rcx),%rdx
  402e24:	48 01 d1             	add    %rdx,%rcx
  402e27:	81 39 50 45 00 00    	cmpl   $0x4550,(%rcx)
  402e2d:	75 ea                	jne    402e19 <_ValidateImageBase+0x9>
  402e2f:	31 c0                	xor    %eax,%eax
  402e31:	66 81 79 18 0b 02    	cmpw   $0x20b,0x18(%rcx)
  402e37:	0f 94 c0             	sete   %al
  402e3a:	c3                   	retq   
  402e3b:	0f 1f 44 00 00       	nopl   0x0(%rax,%rax,1)

0000000000402e40 <_FindPESection>:
  402e40:	48 63 41 3c          	movslq 0x3c(%rcx),%rax
  402e44:	48 01 c1             	add    %rax,%rcx
  402e47:	0f b7 41 14          	movzwl 0x14(%rcx),%eax
  402e4b:	48 8d 44 01 18       	lea    0x18(%rcx,%rax,1),%rax
  402e50:	0f b7 49 06          	movzwl 0x6(%rcx),%ecx
  402e54:	85 c9                	test   %ecx,%ecx
  402e56:	74 29                	je     402e81 <_FindPESection+0x41>
  402e58:	83 e9 01             	sub    $0x1,%ecx
  402e5b:	48 8d 0c 89          	lea    (%rcx,%rcx,4),%rcx
  402e5f:	4c 8d 4c c8 28       	lea    0x28(%rax,%rcx,8),%r9
  402e64:	44 8b 40 0c          	mov    0xc(%rax),%r8d
  402e68:	4c 89 c1             	mov    %r8,%rcx
  402e6b:	49 39 d0             	cmp    %rdx,%r8
  402e6e:	77 08                	ja     402e78 <_FindPESection+0x38>
  402e70:	03 48 08             	add    0x8(%rax),%ecx
  402e73:	48 39 d1             	cmp    %rdx,%rcx
  402e76:	77 0b                	ja     402e83 <_FindPESection+0x43>
  402e78:	48 83 c0 28          	add    $0x28,%rax
  402e7c:	4c 39 c8             	cmp    %r9,%rax
  402e7f:	75 e3                	jne    402e64 <_FindPESection+0x24>
  402e81:	31 c0                	xor    %eax,%eax
  402e83:	c3                   	retq   
  402e84:	66 90                	xchg   %ax,%ax
  402e86:	66 2e 0f 1f 84 00 00 	nopw   %cs:0x0(%rax,%rax,1)
  402e8d:	00 00 00 

0000000000402e90 <_FindPESectionByName>:
  402e90:	57                   	push   %rdi
  402e91:	56                   	push   %rsi
  402e92:	53                   	push   %rbx
  402e93:	48 83 ec 20          	sub    $0x20,%rsp
  402e97:	48 89 ce             	mov    %rcx,%rsi
  402e9a:	e8 71 03 00 00       	callq  403210 <strlen>
  402e9f:	48 83 f8 08          	cmp    $0x8,%rax
  402ea3:	77 2b                	ja     402ed0 <_FindPESectionByName+0x40>
  402ea5:	48 8b 15 a4 25 00 00 	mov    0x25a4(%rip),%rdx        # 405450 <.refptr.__image_base__>
  402eac:	66 81 3a 4d 5a       	cmpw   $0x5a4d,(%rdx)
  402eb1:	75 1d                	jne    402ed0 <_FindPESectionByName+0x40>
  402eb3:	48 63 42 3c          	movslq 0x3c(%rdx),%rax
  402eb7:	31 db                	xor    %ebx,%ebx
  402eb9:	48 01 d0             	add    %rdx,%rax
  402ebc:	81 38 50 45 00 00    	cmpl   $0x4550,(%rax)
  402ec2:	74 1c                	je     402ee0 <_FindPESectionByName+0x50>
  402ec4:	48 89 d8             	mov    %rbx,%rax
  402ec7:	48 83 c4 20          	add    $0x20,%rsp
  402ecb:	5b                   	pop    %rbx
  402ecc:	5e                   	pop    %rsi
  402ecd:	5f                   	pop    %rdi
  402ece:	c3                   	retq   
  402ecf:	90                   	nop
  402ed0:	31 db                	xor    %ebx,%ebx
  402ed2:	48 89 d8             	mov    %rbx,%rax
  402ed5:	48 83 c4 20          	add    $0x20,%rsp
  402ed9:	5b                   	pop    %rbx
  402eda:	5e                   	pop    %rsi
  402edb:	5f                   	pop    %rdi
  402edc:	c3                   	retq   
  402edd:	0f 1f 00             	nopl   (%rax)
  402ee0:	66 81 78 18 0b 02    	cmpw   $0x20b,0x18(%rax)
  402ee6:	75 dc                	jne    402ec4 <_FindPESectionByName+0x34>
  402ee8:	0f b7 50 14          	movzwl 0x14(%rax),%edx
  402eec:	48 8d 5c 10 18       	lea    0x18(%rax,%rdx,1),%rbx
  402ef1:	0f b7 40 06          	movzwl 0x6(%rax),%eax
  402ef5:	85 c0                	test   %eax,%eax
  402ef7:	74 d7                	je     402ed0 <_FindPESectionByName+0x40>
  402ef9:	83 e8 01             	sub    $0x1,%eax
  402efc:	48 8d 04 80          	lea    (%rax,%rax,4),%rax
  402f00:	48 8d 7c c3 28       	lea    0x28(%rbx,%rax,8),%rdi
  402f05:	eb 12                	jmp    402f19 <_FindPESectionByName+0x89>
  402f07:	66 0f 1f 84 00 00 00 	nopw   0x0(%rax,%rax,1)
  402f0e:	00 00 
  402f10:	48 83 c3 28          	add    $0x28,%rbx
  402f14:	48 39 fb             	cmp    %rdi,%rbx
  402f17:	74 b7                	je     402ed0 <_FindPESectionByName+0x40>
  402f19:	41 b8 08 00 00 00    	mov    $0x8,%r8d
  402f1f:	48 89 f2             	mov    %rsi,%rdx
  402f22:	48 89 d9             	mov    %rbx,%rcx
  402f25:	e8 de 02 00 00       	callq  403208 <strncmp>
  402f2a:	85 c0                	test   %eax,%eax
  402f2c:	75 e2                	jne    402f10 <_FindPESectionByName+0x80>
  402f2e:	48 89 d8             	mov    %rbx,%rax
  402f31:	48 83 c4 20          	add    $0x20,%rsp
  402f35:	5b                   	pop    %rbx
  402f36:	5e                   	pop    %rsi
  402f37:	5f                   	pop    %rdi
  402f38:	c3                   	retq   
  402f39:	0f 1f 80 00 00 00 00 	nopl   0x0(%rax)

0000000000402f40 <__mingw_GetSectionForAddress>:
  402f40:	4c 8b 05 09 25 00 00 	mov    0x2509(%rip),%r8        # 405450 <.refptr.__image_base__>
  402f47:	66 41 81 38 4d 5a    	cmpw   $0x5a4d,(%r8)
  402f4d:	75 5e                	jne    402fad <__mingw_GetSectionForAddress+0x6d>
  402f4f:	49 63 50 3c          	movslq 0x3c(%r8),%rdx
  402f53:	31 c0                	xor    %eax,%eax
  402f55:	4c 01 c2             	add    %r8,%rdx
  402f58:	81 3a 50 45 00 00    	cmpl   $0x4550,(%rdx)
  402f5e:	74 01                	je     402f61 <__mingw_GetSectionForAddress+0x21>
  402f60:	c3                   	retq   
  402f61:	66 81 7a 18 0b 02    	cmpw   $0x20b,0x18(%rdx)
  402f67:	75 f7                	jne    402f60 <__mingw_GetSectionForAddress+0x20>
  402f69:	0f b7 42 14          	movzwl 0x14(%rdx),%eax
  402f6d:	4c 29 c1             	sub    %r8,%rcx
  402f70:	48 8d 44 02 18       	lea    0x18(%rdx,%rax,1),%rax
  402f75:	0f b7 52 06          	movzwl 0x6(%rdx),%edx
  402f79:	85 d2                	test   %edx,%edx
  402f7b:	74 30                	je     402fad <__mingw_GetSectionForAddress+0x6d>
  402f7d:	83 ea 01             	sub    $0x1,%edx
  402f80:	48 8d 14 92          	lea    (%rdx,%rdx,4),%rdx
  402f84:	4c 8d 4c d0 28       	lea    0x28(%rax,%rdx,8),%r9
  402f89:	0f 1f 80 00 00 00 00 	nopl   0x0(%rax)
  402f90:	44 8b 40 0c          	mov    0xc(%rax),%r8d
  402f94:	4c 89 c2             	mov    %r8,%rdx
  402f97:	4c 39 c1             	cmp    %r8,%rcx
  402f9a:	72 08                	jb     402fa4 <__mingw_GetSectionForAddress+0x64>
  402f9c:	03 50 08             	add    0x8(%rax),%edx
  402f9f:	48 39 d1             	cmp    %rdx,%rcx
  402fa2:	72 bc                	jb     402f60 <__mingw_GetSectionForAddress+0x20>
  402fa4:	48 83 c0 28          	add    $0x28,%rax
  402fa8:	4c 39 c8             	cmp    %r9,%rax
  402fab:	75 e3                	jne    402f90 <__mingw_GetSectionForAddress+0x50>
  402fad:	31 c0                	xor    %eax,%eax
  402faf:	c3                   	retq   

0000000000402fb0 <__mingw_GetSectionCount>:
  402fb0:	48 8b 15 99 24 00 00 	mov    0x2499(%rip),%rdx        # 405450 <.refptr.__image_base__>
  402fb7:	31 c0                	xor    %eax,%eax
  402fb9:	66 81 3a 4d 5a       	cmpw   $0x5a4d,(%rdx)
  402fbe:	74 01                	je     402fc1 <__mingw_GetSectionCount+0x11>
  402fc0:	c3                   	retq   
  402fc1:	48 63 4a 3c          	movslq 0x3c(%rdx),%rcx
  402fc5:	48 01 ca             	add    %rcx,%rdx
  402fc8:	81 3a 50 45 00 00    	cmpl   $0x4550,(%rdx)
  402fce:	75 f0                	jne    402fc0 <__mingw_GetSectionCount+0x10>
  402fd0:	66 81 7a 18 0b 02    	cmpw   $0x20b,0x18(%rdx)
  402fd6:	75 e8                	jne    402fc0 <__mingw_GetSectionCount+0x10>
  402fd8:	0f b7 42 06          	movzwl 0x6(%rdx),%eax
  402fdc:	c3                   	retq   
  402fdd:	0f 1f 00             	nopl   (%rax)

0000000000402fe0 <_FindPESectionExec>:
  402fe0:	48 8b 05 69 24 00 00 	mov    0x2469(%rip),%rax        # 405450 <.refptr.__image_base__>
  402fe7:	66 81 38 4d 5a       	cmpw   $0x5a4d,(%rax)
  402fec:	75 4f                	jne    40303d <_FindPESectionExec+0x5d>
  402fee:	48 63 50 3c          	movslq 0x3c(%rax),%rdx
  402ff2:	48 01 c2             	add    %rax,%rdx
  402ff5:	31 c0                	xor    %eax,%eax
  402ff7:	81 3a 50 45 00 00    	cmpl   $0x4550,(%rdx)
  402ffd:	74 01                	je     403000 <_FindPESectionExec+0x20>
  402fff:	c3                   	retq   
  403000:	66 81 7a 18 0b 02    	cmpw   $0x20b,0x18(%rdx)
  403006:	75 f7                	jne    402fff <_FindPESectionExec+0x1f>
  403008:	0f b7 42 14          	movzwl 0x14(%rdx),%eax
  40300c:	48 8d 44 02 18       	lea    0x18(%rdx,%rax,1),%rax
  403011:	0f b7 52 06          	movzwl 0x6(%rdx),%edx
  403015:	85 d2                	test   %edx,%edx
  403017:	74 24                	je     40303d <_FindPESectionExec+0x5d>
  403019:	83 ea 01             	sub    $0x1,%edx
  40301c:	48 8d 14 92          	lea    (%rdx,%rdx,4),%rdx
  403020:	48 8d 54 d0 28       	lea    0x28(%rax,%rdx,8),%rdx
  403025:	f6 40 27 20          	testb  $0x20,0x27(%rax)
  403029:	74 09                	je     403034 <_FindPESectionExec+0x54>
  40302b:	48 85 c9             	test   %rcx,%rcx
  40302e:	74 cf                	je     402fff <_FindPESectionExec+0x1f>
  403030:	48 83 e9 01          	sub    $0x1,%rcx
  403034:	48 83 c0 28          	add    $0x28,%rax
  403038:	48 39 d0             	cmp    %rdx,%rax
  40303b:	75 e8                	jne    403025 <_FindPESectionExec+0x45>
  40303d:	31 c0                	xor    %eax,%eax
  40303f:	c3                   	retq   

0000000000403040 <_GetPEImageBase>:
  403040:	48 8b 15 09 24 00 00 	mov    0x2409(%rip),%rdx        # 405450 <.refptr.__image_base__>
  403047:	66 81 3a 4d 5a       	cmpw   $0x5a4d,(%rdx)
  40304c:	75 22                	jne    403070 <_GetPEImageBase+0x30>
  40304e:	48 63 4a 3c          	movslq 0x3c(%rdx),%rcx
  403052:	31 c0                	xor    %eax,%eax
  403054:	48 01 d1             	add    %rdx,%rcx
  403057:	81 39 50 45 00 00    	cmpl   $0x4550,(%rcx)
  40305d:	74 01                	je     403060 <_GetPEImageBase+0x20>
  40305f:	c3                   	retq   
  403060:	66 81 79 18 0b 02    	cmpw   $0x20b,0x18(%rcx)
  403066:	48 0f 44 c2          	cmove  %rdx,%rax
  40306a:	c3                   	retq   
  40306b:	0f 1f 44 00 00       	nopl   0x0(%rax,%rax,1)
  403070:	31 c0                	xor    %eax,%eax
  403072:	c3                   	retq   
  403073:	0f 1f 00             	nopl   (%rax)
  403076:	66 2e 0f 1f 84 00 00 	nopw   %cs:0x0(%rax,%rax,1)
  40307d:	00 00 00 

0000000000403080 <_IsNonwritableInCurrentImage>:
  403080:	48 8b 15 c9 23 00 00 	mov    0x23c9(%rip),%rdx        # 405450 <.refptr.__image_base__>
  403087:	31 c0                	xor    %eax,%eax
  403089:	66 81 3a 4d 5a       	cmpw   $0x5a4d,(%rdx)
  40308e:	74 01                	je     403091 <_IsNonwritableInCurrentImage+0x11>
  403090:	c3                   	retq   
  403091:	4c 63 42 3c          	movslq 0x3c(%rdx),%r8
  403095:	49 01 d0             	add    %rdx,%r8
  403098:	41 81 38 50 45 00 00 	cmpl   $0x4550,(%r8)
  40309f:	75 ef                	jne    403090 <_IsNonwritableInCurrentImage+0x10>
  4030a1:	66 41 81 78 18 0b 02 	cmpw   $0x20b,0x18(%r8)
  4030a8:	75 e6                	jne    403090 <_IsNonwritableInCurrentImage+0x10>
  4030aa:	48 29 d1             	sub    %rdx,%rcx
  4030ad:	41 0f b7 50 14       	movzwl 0x14(%r8),%edx
  4030b2:	49 8d 54 10 18       	lea    0x18(%r8,%rdx,1),%rdx
  4030b7:	45 0f b7 40 06       	movzwl 0x6(%r8),%r8d
  4030bc:	45 85 c0             	test   %r8d,%r8d
  4030bf:	74 cf                	je     403090 <_IsNonwritableInCurrentImage+0x10>
  4030c1:	41 8d 40 ff          	lea    -0x1(%r8),%eax
  4030c5:	48 8d 04 80          	lea    (%rax,%rax,4),%rax
  4030c9:	4c 8d 4c c2 28       	lea    0x28(%rdx,%rax,8),%r9
  4030ce:	66 90                	xchg   %ax,%ax
  4030d0:	44 8b 42 0c          	mov    0xc(%rdx),%r8d
  4030d4:	4c 89 c0             	mov    %r8,%rax
  4030d7:	4c 39 c1             	cmp    %r8,%rcx
  4030da:	72 08                	jb     4030e4 <_IsNonwritableInCurrentImage+0x64>
  4030dc:	03 42 08             	add    0x8(%rdx),%eax
  4030df:	48 39 c1             	cmp    %rax,%rcx
  4030e2:	72 0c                	jb     4030f0 <_IsNonwritableInCurrentImage+0x70>
  4030e4:	48 83 c2 28          	add    $0x28,%rdx
  4030e8:	4c 39 ca             	cmp    %r9,%rdx
  4030eb:	75 e3                	jne    4030d0 <_IsNonwritableInCurrentImage+0x50>
  4030ed:	31 c0                	xor    %eax,%eax
  4030ef:	c3                   	retq   
  4030f0:	8b 42 24             	mov    0x24(%rdx),%eax
  4030f3:	f7 d0                	not    %eax
  4030f5:	c1 e8 1f             	shr    $0x1f,%eax
  4030f8:	c3                   	retq   
  4030f9:	0f 1f 80 00 00 00 00 	nopl   0x0(%rax)

0000000000403100 <__mingw_enum_import_library_names>:
  403100:	4c 8b 1d 49 23 00 00 	mov    0x2349(%rip),%r11        # 405450 <.refptr.__image_base__>
  403107:	66 41 81 3b 4d 5a    	cmpw   $0x5a4d,(%r11)
  40310d:	75 6f                	jne    40317e <__mingw_enum_import_library_names+0x7e>
  40310f:	4d 63 4b 3c          	movslq 0x3c(%r11),%r9
  403113:	31 c0                	xor    %eax,%eax
  403115:	4d 01 d9             	add    %r11,%r9
  403118:	41 81 39 50 45 00 00 	cmpl   $0x4550,(%r9)
  40311f:	74 01                	je     403122 <__mingw_enum_import_library_names+0x22>
  403121:	c3                   	retq   
  403122:	66 41 81 79 18 0b 02 	cmpw   $0x20b,0x18(%r9)
  403129:	75 f6                	jne    403121 <__mingw_enum_import_library_names+0x21>
  40312b:	41 8b 91 90 00 00 00 	mov    0x90(%r9),%edx
  403132:	85 d2                	test   %edx,%edx
  403134:	74 eb                	je     403121 <__mingw_enum_import_library_names+0x21>
  403136:	45 0f b7 41 14       	movzwl 0x14(%r9),%r8d
  40313b:	4f 8d 44 01 18       	lea    0x18(%r9,%r8,1),%r8
  403140:	45 0f b7 49 06       	movzwl 0x6(%r9),%r9d
  403145:	45 85 c9             	test   %r9d,%r9d
  403148:	74 d7                	je     403121 <__mingw_enum_import_library_names+0x21>
  40314a:	41 8d 41 ff          	lea    -0x1(%r9),%eax
  40314e:	48 8d 04 80          	lea    (%rax,%rax,4),%rax
  403152:	4d 8d 54 c0 28       	lea    0x28(%r8,%rax,8),%r10
  403157:	66 0f 1f 84 00 00 00 	nopw   0x0(%rax,%rax,1)
  40315e:	00 00 
  403160:	45 8b 48 0c          	mov    0xc(%r8),%r9d
  403164:	4c 89 c8             	mov    %r9,%rax
  403167:	4c 39 ca             	cmp    %r9,%rdx
  40316a:	72 09                	jb     403175 <__mingw_enum_import_library_names+0x75>
  40316c:	41 03 40 08          	add    0x8(%r8),%eax
  403170:	48 39 c2             	cmp    %rax,%rdx
  403173:	72 0c                	jb     403181 <__mingw_enum_import_library_names+0x81>
  403175:	49 83 c0 28          	add    $0x28,%r8
  403179:	4d 39 c2             	cmp    %r8,%r10
  40317c:	75 e2                	jne    403160 <__mingw_enum_import_library_names+0x60>
  40317e:	31 c0                	xor    %eax,%eax
  403180:	c3                   	retq   
  403181:	48 89 d0             	mov    %rdx,%rax
  403184:	4c 01 d8             	add    %r11,%rax
  403187:	75 0e                	jne    403197 <__mingw_enum_import_library_names+0x97>
  403189:	eb f3                	jmp    40317e <__mingw_enum_import_library_names+0x7e>
  40318b:	0f 1f 44 00 00       	nopl   0x0(%rax,%rax,1)
  403190:	83 e9 01             	sub    $0x1,%ecx
  403193:	48 83 c0 14          	add    $0x14,%rax
  403197:	44 8b 40 04          	mov    0x4(%rax),%r8d
  40319b:	45 85 c0             	test   %r8d,%r8d
  40319e:	75 07                	jne    4031a7 <__mingw_enum_import_library_names+0xa7>
  4031a0:	8b 50 0c             	mov    0xc(%rax),%edx
  4031a3:	85 d2                	test   %edx,%edx
  4031a5:	74 d7                	je     40317e <__mingw_enum_import_library_names+0x7e>
  4031a7:	85 c9                	test   %ecx,%ecx
  4031a9:	7f e5                	jg     403190 <__mingw_enum_import_library_names+0x90>
  4031ab:	8b 40 0c             	mov    0xc(%rax),%eax
  4031ae:	4c 01 d8             	add    %r11,%rax
  4031b1:	c3                   	retq   
  4031b2:	90                   	nop
  4031b3:	90                   	nop
  4031b4:	90                   	nop
  4031b5:	90                   	nop
  4031b6:	90                   	nop
  4031b7:	90                   	nop
  4031b8:	90                   	nop
  4031b9:	90                   	nop
  4031ba:	90                   	nop
  4031bb:	90                   	nop
  4031bc:	90                   	nop
  4031bd:	90                   	nop
  4031be:	90                   	nop
  4031bf:	90                   	nop

00000000004031c0 <___chkstk_ms>:
  4031c0:	51                   	push   %rcx
  4031c1:	50                   	push   %rax
  4031c2:	48 3d 00 10 00 00    	cmp    $0x1000,%rax
  4031c8:	48 8d 4c 24 18       	lea    0x18(%rsp),%rcx
  4031cd:	72 19                	jb     4031e8 <___chkstk_ms+0x28>
  4031cf:	48 81 e9 00 10 00 00 	sub    $0x1000,%rcx
  4031d6:	48 83 09 00          	orq    $0x0,(%rcx)
  4031da:	48 2d 00 10 00 00    	sub    $0x1000,%rax
  4031e0:	48 3d 00 10 00 00    	cmp    $0x1000,%rax
  4031e6:	77 e7                	ja     4031cf <___chkstk_ms+0xf>
  4031e8:	48 29 c1             	sub    %rax,%rcx
  4031eb:	48 83 09 00          	orq    $0x0,(%rcx)
  4031ef:	58                   	pop    %rax
  4031f0:	59                   	pop    %rcx
  4031f1:	c3                   	retq   
  4031f2:	90                   	nop
  4031f3:	90                   	nop
  4031f4:	90                   	nop
  4031f5:	90                   	nop
  4031f6:	90                   	nop
  4031f7:	90                   	nop
  4031f8:	90                   	nop
  4031f9:	90                   	nop
  4031fa:	90                   	nop
  4031fb:	90                   	nop
  4031fc:	90                   	nop
  4031fd:	90                   	nop
  4031fe:	90                   	nop
  4031ff:	90                   	nop

0000000000403200 <vfprintf>:
  403200:	ff 25 b6 62 00 00    	jmpq   *0x62b6(%rip)        # 4094bc <__imp_vfprintf>
  403206:	90                   	nop
  403207:	90                   	nop

0000000000403208 <strncmp>:
  403208:	ff 25 a6 62 00 00    	jmpq   *0x62a6(%rip)        # 4094b4 <__imp_strncmp>
  40320e:	90                   	nop
  40320f:	90                   	nop

0000000000403210 <strlen>:
  403210:	ff 25 96 62 00 00    	jmpq   *0x6296(%rip)        # 4094ac <__imp_strlen>
  403216:	90                   	nop
  403217:	90                   	nop

0000000000403218 <signal>:
  403218:	ff 25 86 62 00 00    	jmpq   *0x6286(%rip)        # 4094a4 <__imp_signal>
  40321e:	90                   	nop
  40321f:	90                   	nop

0000000000403220 <scanf>:
  403220:	ff 25 76 62 00 00    	jmpq   *0x6276(%rip)        # 40949c <__imp_scanf>
  403226:	90                   	nop
  403227:	90                   	nop

0000000000403228 <rand>:
  403228:	ff 25 66 62 00 00    	jmpq   *0x6266(%rip)        # 409494 <__imp_rand>
  40322e:	90                   	nop
  40322f:	90                   	nop

0000000000403230 <printf>:
  403230:	ff 25 56 62 00 00    	jmpq   *0x6256(%rip)        # 40948c <__imp_printf>
  403236:	90                   	nop
  403237:	90                   	nop

0000000000403238 <memcpy>:
  403238:	ff 25 36 62 00 00    	jmpq   *0x6236(%rip)        # 409474 <__imp_memcpy>
  40323e:	90                   	nop
  40323f:	90                   	nop

0000000000403240 <malloc>:
  403240:	ff 25 26 62 00 00    	jmpq   *0x6226(%rip)        # 40946c <__imp_malloc>
  403246:	90                   	nop
  403247:	90                   	nop

0000000000403248 <fwrite>:
  403248:	ff 25 16 62 00 00    	jmpq   *0x6216(%rip)        # 409464 <__imp_fwrite>
  40324e:	90                   	nop
  40324f:	90                   	nop

0000000000403250 <free>:
  403250:	ff 25 06 62 00 00    	jmpq   *0x6206(%rip)        # 40945c <__imp_free>
  403256:	90                   	nop
  403257:	90                   	nop

0000000000403258 <fprintf>:
  403258:	ff 25 f6 61 00 00    	jmpq   *0x61f6(%rip)        # 409454 <__imp_fprintf>
  40325e:	90                   	nop
  40325f:	90                   	nop

0000000000403260 <exit>:
  403260:	ff 25 e6 61 00 00    	jmpq   *0x61e6(%rip)        # 40944c <__imp_exit>
  403266:	90                   	nop
  403267:	90                   	nop

0000000000403268 <calloc>:
  403268:	ff 25 d6 61 00 00    	jmpq   *0x61d6(%rip)        # 409444 <__imp_calloc>
  40326e:	90                   	nop
  40326f:	90                   	nop

0000000000403270 <abort>:
  403270:	ff 25 c6 61 00 00    	jmpq   *0x61c6(%rip)        # 40943c <__imp_abort>
  403276:	90                   	nop
  403277:	90                   	nop

0000000000403278 <_unlock>:
  403278:	ff 25 ae 61 00 00    	jmpq   *0x61ae(%rip)        # 40942c <__imp__unlock>
  40327e:	90                   	nop
  40327f:	90                   	nop

0000000000403280 <_onexit>:
  403280:	ff 25 96 61 00 00    	jmpq   *0x6196(%rip)        # 40941c <__imp__onexit>
  403286:	90                   	nop
  403287:	90                   	nop

0000000000403288 <_lock>:
  403288:	ff 25 86 61 00 00    	jmpq   *0x6186(%rip)        # 409414 <__imp__lock>
  40328e:	90                   	nop
  40328f:	90                   	nop

0000000000403290 <_initterm>:
  403290:	ff 25 76 61 00 00    	jmpq   *0x6176(%rip)        # 40940c <__imp__initterm>
  403296:	90                   	nop
  403297:	90                   	nop

0000000000403298 <_cexit>:
  403298:	ff 25 4e 61 00 00    	jmpq   *0x614e(%rip)        # 4093ec <__imp__cexit>
  40329e:	90                   	nop
  40329f:	90                   	nop

00000000004032a0 <_amsg_exit>:
  4032a0:	ff 25 3e 61 00 00    	jmpq   *0x613e(%rip)        # 4093e4 <__imp__amsg_exit>
  4032a6:	90                   	nop
  4032a7:	90                   	nop

00000000004032a8 <__setusermatherr>:
  4032a8:	ff 25 26 61 00 00    	jmpq   *0x6126(%rip)        # 4093d4 <__imp___setusermatherr>
  4032ae:	90                   	nop
  4032af:	90                   	nop

00000000004032b0 <__set_app_type>:
  4032b0:	ff 25 16 61 00 00    	jmpq   *0x6116(%rip)        # 4093cc <__imp___set_app_type>
  4032b6:	90                   	nop
  4032b7:	90                   	nop

00000000004032b8 <__lconv_init>:
  4032b8:	ff 25 06 61 00 00    	jmpq   *0x6106(%rip)        # 4093c4 <__imp___lconv_init>
  4032be:	90                   	nop
  4032bf:	90                   	nop

00000000004032c0 <__iob_func>:
  4032c0:	ff 25 f6 60 00 00    	jmpq   *0x60f6(%rip)        # 4093bc <__imp___iob_func>
  4032c6:	90                   	nop
  4032c7:	90                   	nop

00000000004032c8 <__getmainargs>:
  4032c8:	ff 25 de 60 00 00    	jmpq   *0x60de(%rip)        # 4093ac <__imp___getmainargs>
  4032ce:	90                   	nop
  4032cf:	90                   	nop

00000000004032d0 <__dllonexit>:
  4032d0:	ff 25 ce 60 00 00    	jmpq   *0x60ce(%rip)        # 4093a4 <__imp___dllonexit>
  4032d6:	90                   	nop
  4032d7:	90                   	nop

00000000004032d8 <__C_specific_handler>:
  4032d8:	ff 25 be 60 00 00    	jmpq   *0x60be(%rip)        # 40939c <__imp___C_specific_handler>
  4032de:	90                   	nop
  4032df:	90                   	nop

00000000004032e0 <_get_invalid_parameter_handler>:
  4032e0:	48 8b 05 69 56 00 00 	mov    0x5669(%rip),%rax        # 408950 <handler>
  4032e7:	c3                   	retq   
  4032e8:	0f 1f 84 00 00 00 00 	nopl   0x0(%rax,%rax,1)
  4032ef:	00 

00000000004032f0 <_set_invalid_parameter_handler>:
  4032f0:	48 89 c8             	mov    %rcx,%rax
  4032f3:	48 87 05 56 56 00 00 	xchg   %rax,0x5656(%rip)        # 408950 <handler>
  4032fa:	c3                   	retq   
  4032fb:	90                   	nop
  4032fc:	90                   	nop
  4032fd:	90                   	nop
  4032fe:	90                   	nop
  4032ff:	90                   	nop

0000000000403300 <monstartup>:
  403300:	55                   	push   %rbp
  403301:	57                   	push   %rdi
  403302:	56                   	push   %rsi
  403303:	53                   	push   %rbx
  403304:	48 83 ec 28          	sub    $0x28,%rsp
  403308:	48 bb c3 f5 28 5c 8f 	movabs $0x28f5c28f5c28f5c3,%rbx
  40330f:	c2 f5 28 
  403312:	48 c7 05 db 0d 00 00 	movq   $0x2,0xddb(%rip)        # 4040f8 <_gmonparam+0x58>
  403319:	02 00 00 00 
  40331d:	48 8d 7a 03          	lea    0x3(%rdx),%rdi
  403321:	48 89 ce             	mov    %rcx,%rsi
  403324:	48 83 e6 fc          	and    $0xfffffffffffffffc,%rsi
  403328:	48 83 e7 fc          	and    $0xfffffffffffffffc,%rdi
  40332c:	48 89 3d b5 0d 00 00 	mov    %rdi,0xdb5(%rip)        # 4040e8 <_gmonparam+0x48>
  403333:	48 29 f7             	sub    %rsi,%rdi
  403336:	48 8d 14 3f          	lea    (%rdi,%rdi,1),%rdx
  40333a:	48 89 fd             	mov    %rdi,%rbp
  40333d:	48 89 35 9c 0d 00 00 	mov    %rsi,0xd9c(%rip)        # 4040e0 <_gmonparam+0x40>
  403344:	48 c1 ea 02          	shr    $0x2,%rdx
  403348:	48 d1 ed             	shr    %rbp
  40334b:	48 89 3d 9e 0d 00 00 	mov    %rdi,0xd9e(%rip)        # 4040f0 <_gmonparam+0x50>
  403352:	48 89 d0             	mov    %rdx,%rax
  403355:	48 89 2d 54 0d 00 00 	mov    %rbp,0xd54(%rip)        # 4040b0 <_gmonparam+0x10>
  40335c:	48 f7 e3             	mul    %rbx
  40335f:	48 89 2d 5a 0d 00 00 	mov    %rbp,0xd5a(%rip)        # 4040c0 <_gmonparam+0x20>
  403366:	48 c1 ea 02          	shr    $0x2,%rdx
  40336a:	83 fa 31             	cmp    $0x31,%edx
  40336d:	0f 8f bd 00 00 00    	jg     403430 <monstartup+0x130>
  403373:	c7 05 5b 0d 00 00 32 	movl   $0x32,0xd5b(%rip)        # 4040d8 <_gmonparam+0x38>
  40337a:	00 00 00 
  40337d:	b8 20 03 00 00       	mov    $0x320,%eax
  403382:	bb 20 03 00 00       	mov    $0x320,%ebx
  403387:	8d 0c 68             	lea    (%rax,%rbp,2),%ecx
  40338a:	48 89 1d 3f 0d 00 00 	mov    %rbx,0xd3f(%rip)        # 4040d0 <_gmonparam+0x30>
  403391:	48 63 c9             	movslq %ecx,%rcx
  403394:	e8 a7 fe ff ff       	callq  403240 <malloc>
  403399:	48 85 c0             	test   %rax,%rax
  40339c:	74 72                	je     403410 <monstartup+0x110>
  40339e:	48 89 c1             	mov    %rax,%rcx
  4033a1:	4c 8d 04 1f          	lea    (%rdi,%rbx,1),%r8
  4033a5:	31 d2                	xor    %edx,%edx
  4033a7:	e8 2c 0b 00 00       	callq  403ed8 <memset>
  4033ac:	48 8d 0c 18          	lea    (%rax,%rbx,1),%rcx
  4033b0:	49 89 c1             	mov    %rax,%r9
  4033b3:	48 89 05 0e 0d 00 00 	mov    %rax,0xd0e(%rip)        # 4040c8 <_gmonparam+0x28>
  4033ba:	48 8d 04 29          	lea    (%rcx,%rbp,1),%rax
  4033be:	48 89 0d e3 0c 00 00 	mov    %rcx,0xce3(%rip)        # 4040a8 <_gmonparam+0x8>
  4033c5:	48 89 05 ec 0c 00 00 	mov    %rax,0xcec(%rip)        # 4040b8 <_gmonparam+0x18>
  4033cc:	31 c0                	xor    %eax,%eax
  4033ce:	66 41 89 41 0c       	mov    %ax,0xc(%r9)
  4033d3:	48 39 ef             	cmp    %rbp,%rdi
  4033d6:	0f 87 89 00 00 00    	ja     403465 <monstartup+0x165>
  4033dc:	41 b9 00 00 01 00    	mov    $0x10000,%r9d
  4033e2:	b8 00 00 01 00       	mov    $0x10000,%eax
  4033e7:	49 89 f0             	mov    %rsi,%r8
  4033ea:	48 89 ea             	mov    %rbp,%rdx
  4033ed:	89 05 6d 55 00 00    	mov    %eax,0x556d(%rip)        # 408960 <s_scale>
  4033f3:	e8 88 07 00 00       	callq  403b80 <profil>
  4033f8:	c7 05 9e 0c 00 00 00 	movl   $0x0,0xc9e(%rip)        # 4040a0 <_gmonparam>
  4033ff:	00 00 00 
  403402:	48 83 c4 28          	add    $0x28,%rsp
  403406:	5b                   	pop    %rbx
  403407:	5e                   	pop    %rsi
  403408:	5f                   	pop    %rdi
  403409:	5d                   	pop    %rbp
  40340a:	c3                   	retq   
  40340b:	0f 1f 44 00 00       	nopl   0x0(%rax,%rax,1)
  403410:	41 b8 1b 00 00 00    	mov    $0x1b,%r8d
  403416:	48 8d 15 83 1f 00 00 	lea    0x1f83(%rip),%rdx        # 4053a0 <.rdata>
  40341d:	b9 02 00 00 00       	mov    $0x2,%ecx
  403422:	48 83 c4 28          	add    $0x28,%rsp
  403426:	5b                   	pop    %rbx
  403427:	5e                   	pop    %rsi
  403428:	5f                   	pop    %rdi
  403429:	5d                   	pop    %rbp
  40342a:	e9 b1 0a 00 00       	jmpq   403ee0 <write>
  40342f:	90                   	nop
  403430:	81 fa fe ff 00 00    	cmp    $0xfffe,%edx
  403436:	7e 19                	jle    403451 <monstartup+0x151>
  403438:	c7 05 96 0c 00 00 fe 	movl   $0xfffe,0xc96(%rip)        # 4040d8 <_gmonparam+0x38>
  40343f:	ff 00 00 
  403442:	b8 e0 ff 0f 00       	mov    $0xfffe0,%eax
  403447:	bb e0 ff 0f 00       	mov    $0xfffe0,%ebx
  40344c:	e9 36 ff ff ff       	jmpq   403387 <monstartup+0x87>
  403451:	48 63 da             	movslq %edx,%rbx
  403454:	89 15 7e 0c 00 00    	mov    %edx,0xc7e(%rip)        # 4040d8 <_gmonparam+0x38>
  40345a:	48 c1 e3 04          	shl    $0x4,%rbx
  40345e:	89 d8                	mov    %ebx,%eax
  403460:	e9 22 ff ff ff       	jmpq   403387 <monstartup+0x87>
  403465:	66 0f ef c9          	pxor   %xmm1,%xmm1
  403469:	f3 48 0f 2a cd       	cvtsi2ss %rbp,%xmm1
  40346e:	48 85 ff             	test   %rdi,%rdi
  403471:	78 2d                	js     4034a0 <monstartup+0x1a0>
  403473:	66 0f ef c0          	pxor   %xmm0,%xmm0
  403477:	f3 48 0f 2a c7       	cvtsi2ss %rdi,%xmm0
  40347c:	f3 0f 5e c8          	divss  %xmm0,%xmm1
  403480:	f3 0f 10 05 4c 1f 00 	movss  0x1f4c(%rip),%xmm0        # 4053d4 <.rdata+0x34>
  403487:	00 
  403488:	f3 0f 59 c1          	mulss  %xmm1,%xmm0
  40348c:	f3 0f 2c c0          	cvttss2si %xmm0,%eax
  403490:	41 89 c1             	mov    %eax,%r9d
  403493:	e9 4f ff ff ff       	jmpq   4033e7 <monstartup+0xe7>
  403498:	0f 1f 84 00 00 00 00 	nopl   0x0(%rax,%rax,1)
  40349f:	00 
  4034a0:	48 d1 ef             	shr    %rdi
  4034a3:	66 0f ef c0          	pxor   %xmm0,%xmm0
  4034a7:	f3 48 0f 2a c7       	cvtsi2ss %rdi,%xmm0
  4034ac:	f3 0f 58 c0          	addss  %xmm0,%xmm0
  4034b0:	eb ca                	jmp    40347c <monstartup+0x17c>
  4034b2:	0f 1f 40 00          	nopl   0x0(%rax)
  4034b6:	66 2e 0f 1f 84 00 00 	nopw   %cs:0x0(%rax,%rax,1)
  4034bd:	00 00 00 

00000000004034c0 <_mcleanup>:
  4034c0:	41 55                	push   %r13
  4034c2:	41 54                	push   %r12
  4034c4:	55                   	push   %rbp
  4034c5:	57                   	push   %rdi
  4034c6:	56                   	push   %rsi
  4034c7:	53                   	push   %rbx
  4034c8:	48 83 ec 78          	sub    $0x78,%rsp
  4034cc:	83 3d cd 0b 00 00 02 	cmpl   $0x2,0xbcd(%rip)        # 4040a0 <_gmonparam>
  4034d3:	0f 84 57 01 00 00    	je     403630 <_mcleanup+0x170>
  4034d9:	45 31 c9             	xor    %r9d,%r9d
  4034dc:	45 31 c0             	xor    %r8d,%r8d
  4034df:	31 d2                	xor    %edx,%edx
  4034e1:	31 c9                	xor    %ecx,%ecx
  4034e3:	e8 98 06 00 00       	callq  403b80 <profil>
  4034e8:	41 b8 b6 01 00 00    	mov    $0x1b6,%r8d
  4034ee:	ba 01 83 00 00       	mov    $0x8301,%edx
  4034f3:	48 8d 0d 86 0b 00 00 	lea    0xb86(%rip),%rcx        # 404080 <gmon_out.4082>
  4034fa:	c7 05 9c 0b 00 00 03 	movl   $0x3,0xb9c(%rip)        # 4040a0 <_gmonparam>
  403501:	00 00 00 
  403504:	e8 df 09 00 00       	callq  403ee8 <open>
  403509:	89 c5                	mov    %eax,%ebp
  40350b:	85 c0                	test   %eax,%eax
  40350d:	0f 88 fd 00 00 00    	js     403610 <_mcleanup+0x150>
  403513:	8b 05 97 0b 00 00    	mov    0xb97(%rip),%eax        # 4040b0 <_gmonparam+0x10>
  403519:	66 0f 6f 05 bf 0b 00 	movdqa 0xbbf(%rip),%xmm0        # 4040e0 <_gmonparam+0x40>
  403520:	00 
  403521:	48 8d 54 24 40       	lea    0x40(%rsp),%rdx
  403526:	89 e9                	mov    %ebp,%ecx
  403528:	41 b8 28 00 00 00    	mov    $0x28,%r8d
  40352e:	83 c0 28             	add    $0x28,%eax
  403531:	0f 29 44 24 40       	movaps %xmm0,0x40(%rsp)
  403536:	89 44 24 50          	mov    %eax,0x50(%rsp)
  40353a:	48 b8 79 18 05 00 64 	movabs $0x6400051879,%rax
  403541:	00 00 00 
  403544:	48 89 44 24 54       	mov    %rax,0x54(%rsp)
  403549:	e8 92 09 00 00       	callq  403ee0 <write>
  40354e:	44 8b 05 5b 0b 00 00 	mov    0xb5b(%rip),%r8d        # 4040b0 <_gmonparam+0x10>
  403555:	48 8b 15 4c 0b 00 00 	mov    0xb4c(%rip),%rdx        # 4040a8 <_gmonparam+0x8>
  40355c:	89 e9                	mov    %ebp,%ecx
  40355e:	e8 7d 09 00 00       	callq  403ee0 <write>
  403563:	48 8b 05 56 0b 00 00 	mov    0xb56(%rip),%rax        # 4040c0 <_gmonparam+0x20>
  40356a:	48 d1 e8             	shr    %rax
  40356d:	85 c0                	test   %eax,%eax
  40356f:	0f 8e 83 00 00 00    	jle    4035f8 <_mcleanup+0x138>
  403575:	44 8d 68 ff          	lea    -0x1(%rax),%r13d
  403579:	31 ff                	xor    %edi,%edi
  40357b:	4c 8d 64 24 20       	lea    0x20(%rsp),%r12
  403580:	49 83 c5 01          	add    $0x1,%r13
  403584:	48 8b 05 2d 0b 00 00 	mov    0xb2d(%rip),%rax        # 4040b8 <_gmonparam+0x18>
  40358b:	0f b7 04 78          	movzwl (%rax,%rdi,2),%eax
  40358f:	66 85 c0             	test   %ax,%ax
  403592:	74 5b                	je     4035ef <_mcleanup+0x12f>
  403594:	48 8b 0d 5d 0b 00 00 	mov    0xb5d(%rip),%rcx        # 4040f8 <_gmonparam+0x58>
  40359b:	48 8b 15 26 0b 00 00 	mov    0xb26(%rip),%rdx        # 4040c8 <_gmonparam+0x28>
  4035a2:	48 8d 34 09          	lea    (%rcx,%rcx,1),%rsi
  4035a6:	48 0f af f7          	imul   %rdi,%rsi
  4035aa:	48 03 35 2f 0b 00 00 	add    0xb2f(%rip),%rsi        # 4040e0 <_gmonparam+0x40>
  4035b1:	48 63 d8             	movslq %eax,%rbx
  4035b4:	41 b8 18 00 00 00    	mov    $0x18,%r8d
  4035ba:	89 e9                	mov    %ebp,%ecx
  4035bc:	48 89 74 24 20       	mov    %rsi,0x20(%rsp)
  4035c1:	48 c1 e3 04          	shl    $0x4,%rbx
  4035c5:	48 01 da             	add    %rbx,%rdx
  4035c8:	48 8b 02             	mov    (%rdx),%rax
  4035cb:	48 89 44 24 28       	mov    %rax,0x28(%rsp)
  4035d0:	8b 42 08             	mov    0x8(%rdx),%eax
  4035d3:	4c 89 e2             	mov    %r12,%rdx
  4035d6:	89 44 24 30          	mov    %eax,0x30(%rsp)
  4035da:	e8 01 09 00 00       	callq  403ee0 <write>
  4035df:	48 8b 15 e2 0a 00 00 	mov    0xae2(%rip),%rdx        # 4040c8 <_gmonparam+0x28>
  4035e6:	0f b7 44 1a 0c       	movzwl 0xc(%rdx,%rbx,1),%eax
  4035eb:	85 c0                	test   %eax,%eax
  4035ed:	75 c2                	jne    4035b1 <_mcleanup+0xf1>
  4035ef:	48 83 c7 01          	add    $0x1,%rdi
  4035f3:	4c 39 ef             	cmp    %r13,%rdi
  4035f6:	75 8c                	jne    403584 <_mcleanup+0xc4>
  4035f8:	89 e9                	mov    %ebp,%ecx
  4035fa:	e8 f9 08 00 00       	callq  403ef8 <close>
  4035ff:	90                   	nop
  403600:	48 83 c4 78          	add    $0x78,%rsp
  403604:	5b                   	pop    %rbx
  403605:	5e                   	pop    %rsi
  403606:	5f                   	pop    %rdi
  403607:	5d                   	pop    %rbp
  403608:	41 5c                	pop    %r12
  40360a:	41 5d                	pop    %r13
  40360c:	c3                   	retq   
  40360d:	0f 1f 00             	nopl   (%rax)
  403610:	48 8d 0d 69 0a 00 00 	lea    0xa69(%rip),%rcx        # 404080 <gmon_out.4082>
  403617:	e8 b4 08 00 00       	callq  403ed0 <perror>
  40361c:	90                   	nop
  40361d:	48 83 c4 78          	add    $0x78,%rsp
  403621:	5b                   	pop    %rbx
  403622:	5e                   	pop    %rsi
  403623:	5f                   	pop    %rdi
  403624:	5d                   	pop    %rbp
  403625:	41 5c                	pop    %r12
  403627:	41 5d                	pop    %r13
  403629:	c3                   	retq   
  40362a:	66 0f 1f 44 00 00    	nopw   0x0(%rax,%rax,1)
  403630:	41 b8 19 00 00 00    	mov    $0x19,%r8d
  403636:	48 8d 15 7e 1d 00 00 	lea    0x1d7e(%rip),%rdx        # 4053bb <.rdata+0x1b>
  40363d:	b9 02 00 00 00       	mov    $0x2,%ecx
  403642:	e8 99 08 00 00       	callq  403ee0 <write>
  403647:	e9 8d fe ff ff       	jmpq   4034d9 <_mcleanup+0x19>
  40364c:	0f 1f 40 00          	nopl   0x0(%rax)

0000000000403650 <moncontrol>:
  403650:	48 83 ec 28          	sub    $0x28,%rsp
  403654:	85 c9                	test   %ecx,%ecx
  403656:	75 28                	jne    403680 <moncontrol+0x30>
  403658:	45 31 c9             	xor    %r9d,%r9d
  40365b:	45 31 c0             	xor    %r8d,%r8d
  40365e:	31 d2                	xor    %edx,%edx
  403660:	31 c9                	xor    %ecx,%ecx
  403662:	e8 19 05 00 00       	callq  403b80 <profil>
  403667:	c7 05 2f 0a 00 00 03 	movl   $0x3,0xa2f(%rip)        # 4040a0 <_gmonparam>
  40366e:	00 00 00 
  403671:	48 83 c4 28          	add    $0x28,%rsp
  403675:	c3                   	retq   
  403676:	66 2e 0f 1f 84 00 00 	nopw   %cs:0x0(%rax,%rax,1)
  40367d:	00 00 00 
  403680:	44 8b 0d d9 52 00 00 	mov    0x52d9(%rip),%r9d        # 408960 <s_scale>
  403687:	4c 8b 05 52 0a 00 00 	mov    0xa52(%rip),%r8        # 4040e0 <_gmonparam+0x40>
  40368e:	48 8b 15 1b 0a 00 00 	mov    0xa1b(%rip),%rdx        # 4040b0 <_gmonparam+0x10>
  403695:	48 8b 0d 0c 0a 00 00 	mov    0xa0c(%rip),%rcx        # 4040a8 <_gmonparam+0x8>
  40369c:	e8 df 04 00 00       	callq  403b80 <profil>
  4036a1:	c7 05 f5 09 00 00 00 	movl   $0x0,0x9f5(%rip)        # 4040a0 <_gmonparam>
  4036a8:	00 00 00 
  4036ab:	48 83 c4 28          	add    $0x28,%rsp
  4036af:	c3                   	retq   

00000000004036b0 <_mcount>:
  4036b0:	55                   	push   %rbp
  4036b1:	48 89 e5             	mov    %rsp,%rbp
  4036b4:	50                   	push   %rax
  4036b5:	51                   	push   %rcx
  4036b6:	52                   	push   %rdx
  4036b7:	41 50                	push   %r8
  4036b9:	41 51                	push   %r9
  4036bb:	41 52                	push   %r10
  4036bd:	41 53                	push   %r11
  4036bf:	48 8b 55 08          	mov    0x8(%rbp),%rdx
  4036c3:	48 8b 45 00          	mov    0x0(%rbp),%rax
  4036c7:	48 8b 48 08          	mov    0x8(%rax),%rcx
  4036cb:	48 83 ec 28          	sub    $0x28,%rsp
  4036cf:	e8 4c 00 00 00       	callq  403720 <_mcount_private>
  4036d4:	48 83 c4 28          	add    $0x28,%rsp
  4036d8:	41 5b                	pop    %r11
  4036da:	41 5a                	pop    %r10
  4036dc:	41 59                	pop    %r9
  4036de:	41 58                	pop    %r8
  4036e0:	5a                   	pop    %rdx
  4036e1:	59                   	pop    %rcx
  4036e2:	58                   	pop    %rax
  4036e3:	c9                   	leaveq 
  4036e4:	c3                   	retq   

00000000004036e5 <__fentry__>:
  4036e5:	55                   	push   %rbp
  4036e6:	48 89 e5             	mov    %rsp,%rbp
  4036e9:	50                   	push   %rax
  4036ea:	51                   	push   %rcx
  4036eb:	52                   	push   %rdx
  4036ec:	41 50                	push   %r8
  4036ee:	41 51                	push   %r9
  4036f0:	41 52                	push   %r10
  4036f2:	41 53                	push   %r11
  4036f4:	48 8b 55 08          	mov    0x8(%rbp),%rdx
  4036f8:	48 8b 4d 10          	mov    0x10(%rbp),%rcx
  4036fc:	48 83 ec 28          	sub    $0x28,%rsp
  403700:	e8 1b 00 00 00       	callq  403720 <_mcount_private>
  403705:	48 83 c4 28          	add    $0x28,%rsp
  403709:	41 5b                	pop    %r11
  40370b:	41 5a                	pop    %r10
  40370d:	41 59                	pop    %r9
  40370f:	41 58                	pop    %r8
  403711:	5a                   	pop    %rdx
  403712:	59                   	pop    %rcx
  403713:	58                   	pop    %rax
  403714:	c9                   	leaveq 
  403715:	c3                   	retq   
  403716:	90                   	nop
  403717:	90                   	nop
  403718:	90                   	nop
  403719:	90                   	nop
  40371a:	90                   	nop
  40371b:	90                   	nop
  40371c:	90                   	nop
  40371d:	90                   	nop
  40371e:	90                   	nop
  40371f:	90                   	nop

0000000000403720 <_mcount_private>:
  403720:	4c 8b 05 29 1e 00 00 	mov    0x1e29(%rip),%r8        # 405550 <.refptr._gmonparam>
  403727:	49 89 d1             	mov    %rdx,%r9
  40372a:	41 8b 10             	mov    (%r8),%edx
  40372d:	85 d2                	test   %edx,%edx
  40372f:	75 79                	jne    4037aa <_mcount_private+0x8a>
  403731:	41 c7 00 01 00 00 00 	movl   $0x1,(%r8)
  403738:	49 2b 48 40          	sub    0x40(%r8),%rcx
  40373c:	49 39 48 50          	cmp    %rcx,0x50(%r8)
  403740:	72 61                	jb     4037a3 <_mcount_private+0x83>
  403742:	49 8b 40 58          	mov    0x58(%r8),%rax
  403746:	4d 8b 58 18          	mov    0x18(%r8),%r11
  40374a:	48 83 f8 02          	cmp    $0x2,%rax
  40374e:	74 60                	je     4037b0 <_mcount_private+0x90>
  403750:	4c 8d 14 00          	lea    (%rax,%rax,1),%r10
  403754:	31 d2                	xor    %edx,%edx
  403756:	48 89 c8             	mov    %rcx,%rax
  403759:	49 f7 f2             	div    %r10
  40375c:	4d 8d 1c 43          	lea    (%r11,%rax,2),%r11
  403760:	41 0f b7 13          	movzwl (%r11),%edx
  403764:	4d 8b 50 28          	mov    0x28(%r8),%r10
  403768:	66 85 d2             	test   %dx,%dx
  40376b:	75 53                	jne    4037c0 <_mcount_private+0xa0>
  40376d:	41 0f b7 42 0c       	movzwl 0xc(%r10),%eax
  403772:	83 c0 01             	add    $0x1,%eax
  403775:	66 41 89 42 0c       	mov    %ax,0xc(%r10)
  40377a:	0f b7 d0             	movzwl %ax,%edx
  40377d:	41 39 50 38          	cmp    %edx,0x38(%r8)
  403781:	7e 7e                	jle    403801 <_mcount_private+0xe1>
  403783:	66 41 89 03          	mov    %ax,(%r11)
  403787:	0f b7 c0             	movzwl %ax,%eax
  40378a:	48 c1 e0 04          	shl    $0x4,%rax
  40378e:	49 01 c2             	add    %rax,%r10
  403791:	31 c0                	xor    %eax,%eax
  403793:	4d 89 0a             	mov    %r9,(%r10)
  403796:	41 c7 42 08 01 00 00 	movl   $0x1,0x8(%r10)
  40379d:	00 
  40379e:	66 41 89 42 0c       	mov    %ax,0xc(%r10)
  4037a3:	41 c7 00 00 00 00 00 	movl   $0x0,(%r8)
  4037aa:	c3                   	retq   
  4037ab:	0f 1f 44 00 00       	nopl   0x0(%rax,%rax,1)
  4037b0:	48 c1 e9 02          	shr    $0x2,%rcx
  4037b4:	4d 8d 1c 4b          	lea    (%r11,%rcx,2),%r11
  4037b8:	eb a6                	jmp    403760 <_mcount_private+0x40>
  4037ba:	66 0f 1f 44 00 00    	nopw   0x0(%rax,%rax,1)
  4037c0:	48 c1 e2 04          	shl    $0x4,%rdx
  4037c4:	4c 01 d2             	add    %r10,%rdx
  4037c7:	4c 39 0a             	cmp    %r9,(%rdx)
  4037ca:	75 16                	jne    4037e2 <_mcount_private+0xc2>
  4037cc:	eb 72                	jmp    403840 <_mcount_private+0x120>
  4037ce:	66 90                	xchg   %ax,%ax
  4037d0:	0f b7 c1             	movzwl %cx,%eax
  4037d3:	48 c1 e0 04          	shl    $0x4,%rax
  4037d7:	4c 01 d0             	add    %r10,%rax
  4037da:	4c 39 08             	cmp    %r9,(%rax)
  4037dd:	74 71                	je     403850 <_mcount_private+0x130>
  4037df:	48 89 c2             	mov    %rax,%rdx
  4037e2:	0f b7 4a 0c          	movzwl 0xc(%rdx),%ecx
  4037e6:	66 85 c9             	test   %cx,%cx
  4037e9:	75 e5                	jne    4037d0 <_mcount_private+0xb0>
  4037eb:	41 0f b7 42 0c       	movzwl 0xc(%r10),%eax
  4037f0:	83 c0 01             	add    $0x1,%eax
  4037f3:	66 41 89 42 0c       	mov    %ax,0xc(%r10)
  4037f8:	0f b7 d0             	movzwl %ax,%edx
  4037fb:	41 39 50 38          	cmp    %edx,0x38(%r8)
  4037ff:	7f 0f                	jg     403810 <_mcount_private+0xf0>
  403801:	41 c7 00 02 00 00 00 	movl   $0x2,(%r8)
  403808:	c3                   	retq   
  403809:	0f 1f 80 00 00 00 00 	nopl   0x0(%rax)
  403810:	0f b7 d0             	movzwl %ax,%edx
  403813:	48 c1 e2 04          	shl    $0x4,%rdx
  403817:	49 01 d2             	add    %rdx,%r10
  40381a:	41 0f b7 13          	movzwl (%r11),%edx
  40381e:	4d 89 0a             	mov    %r9,(%r10)
  403821:	41 c7 42 08 01 00 00 	movl   $0x1,0x8(%r10)
  403828:	00 
  403829:	66 41 89 52 0c       	mov    %dx,0xc(%r10)
  40382e:	66 41 89 03          	mov    %ax,(%r11)
  403832:	e9 6c ff ff ff       	jmpq   4037a3 <_mcount_private+0x83>
  403837:	66 0f 1f 84 00 00 00 	nopw   0x0(%rax,%rax,1)
  40383e:	00 00 
  403840:	83 42 08 01          	addl   $0x1,0x8(%rdx)
  403844:	e9 5a ff ff ff       	jmpq   4037a3 <_mcount_private+0x83>
  403849:	0f 1f 80 00 00 00 00 	nopl   0x0(%rax)
  403850:	44 0f b7 48 0c       	movzwl 0xc(%rax),%r9d
  403855:	83 40 08 01          	addl   $0x1,0x8(%rax)
  403859:	66 44 89 4a 0c       	mov    %r9w,0xc(%rdx)
  40385e:	41 0f b7 13          	movzwl (%r11),%edx
  403862:	66 89 50 0c          	mov    %dx,0xc(%rax)
  403866:	66 41 89 0b          	mov    %cx,(%r11)
  40386a:	e9 34 ff ff ff       	jmpq   4037a3 <_mcount_private+0x83>
  40386f:	90                   	nop

0000000000403870 <get_thrpc>:
  403870:	56                   	push   %rsi
  403871:	53                   	push   %rbx
  403872:	48 81 ec f8 04 00 00 	sub    $0x4f8,%rsp
  403879:	48 c7 c6 ff ff ff ff 	mov    $0xffffffffffffffff,%rsi
  403880:	48 89 cb             	mov    %rcx,%rbx
  403883:	ff 15 d3 5a 00 00    	callq  *0x5ad3(%rip)        # 40935c <__imp_SuspendThread>
  403889:	83 f8 ff             	cmp    $0xffffffff,%eax
  40388c:	74 23                	je     4038b1 <get_thrpc+0x41>
  40388e:	c7 44 24 50 03 00 10 	movl   $0x100003,0x50(%rsp)
  403895:	00 
  403896:	48 8d 54 24 20       	lea    0x20(%rsp),%rdx
  40389b:	48 89 d9             	mov    %rbx,%rcx
  40389e:	ff 15 48 5a 00 00    	callq  *0x5a48(%rip)        # 4092ec <__imp_GetThreadContext>
  4038a4:	85 c0                	test   %eax,%eax
  4038a6:	75 18                	jne    4038c0 <get_thrpc+0x50>
  4038a8:	48 89 d9             	mov    %rbx,%rcx
  4038ab:	ff 15 63 5a 00 00    	callq  *0x5a63(%rip)        # 409314 <__imp_ResumeThread>
  4038b1:	48 89 f0             	mov    %rsi,%rax
  4038b4:	48 81 c4 f8 04 00 00 	add    $0x4f8,%rsp
  4038bb:	5b                   	pop    %rbx
  4038bc:	5e                   	pop    %rsi
  4038bd:	c3                   	retq   
  4038be:	66 90                	xchg   %ax,%ax
  4038c0:	48 8b b4 24 18 01 00 	mov    0x118(%rsp),%rsi
  4038c7:	00 
  4038c8:	eb de                	jmp    4038a8 <get_thrpc+0x38>
  4038ca:	66 0f 1f 44 00 00    	nopw   0x0(%rax,%rax,1)

00000000004038d0 <profthr_func>:
  4038d0:	56                   	push   %rsi
  4038d1:	53                   	push   %rbx
  4038d2:	48 83 ec 28          	sub    $0x28,%rsp
  4038d6:	48 8b 35 af 5a 00 00 	mov    0x5aaf(%rip),%rsi        # 40938c <__imp_WaitForSingleObject>
  4038dd:	48 89 cb             	mov    %rcx,%rbx
  4038e0:	48 8b 0b             	mov    (%rbx),%rcx
  4038e3:	e8 88 ff ff ff       	callq  403870 <get_thrpc>
  4038e8:	48 8b 53 20          	mov    0x20(%rbx),%rdx
  4038ec:	48 39 c2             	cmp    %rax,%rdx
  4038ef:	77 31                	ja     403922 <profthr_func+0x52>
  4038f1:	48 39 43 28          	cmp    %rax,0x28(%rbx)
  4038f5:	76 2b                	jbe    403922 <profthr_func+0x52>
  4038f7:	48 29 d0             	sub    %rdx,%rax
  4038fa:	8b 4b 30             	mov    0x30(%rbx),%ecx
  4038fd:	48 89 c2             	mov    %rax,%rdx
  403900:	48 c1 e8 11          	shr    $0x11,%rax
  403904:	48 d1 ea             	shr    %rdx
  403907:	48 0f af c1          	imul   %rcx,%rax
  40390b:	0f b7 d2             	movzwl %dx,%edx
  40390e:	48 0f af d1          	imul   %rcx,%rdx
  403912:	48 c1 ea 10          	shr    $0x10,%rdx
  403916:	48 01 d0             	add    %rdx,%rax
  403919:	48 8b 53 18          	mov    0x18(%rbx),%rdx
  40391d:	66 83 04 42 01       	addw   $0x1,(%rdx,%rax,2)
  403922:	48 8b 4b 10          	mov    0x10(%rbx),%rcx
  403926:	ba 0a 00 00 00       	mov    $0xa,%edx
  40392b:	ff d6                	callq  *%rsi
  40392d:	85 c0                	test   %eax,%eax
  40392f:	75 af                	jne    4038e0 <profthr_func+0x10>
  403931:	48 83 c4 28          	add    $0x28,%rsp
  403935:	5b                   	pop    %rbx
  403936:	5e                   	pop    %rsi
  403937:	c3                   	retq   
  403938:	0f 1f 84 00 00 00 00 	nopl   0x0(%rax,%rax,1)
  40393f:	00 

0000000000403940 <profile_ctl>:
  403940:	41 55                	push   %r13
  403942:	41 54                	push   %r12
  403944:	55                   	push   %rbp
  403945:	57                   	push   %rdi
  403946:	56                   	push   %rsi
  403947:	53                   	push   %rbx
  403948:	48 83 ec 58          	sub    $0x58,%rsp
  40394c:	8b bc 24 b0 00 00 00 	mov    0xb0(%rsp),%edi
  403953:	48 89 cb             	mov    %rcx,%rbx
  403956:	49 89 d5             	mov    %rdx,%r13
  403959:	4c 89 c6             	mov    %r8,%rsi
  40395c:	4c 89 cd             	mov    %r9,%rbp
  40395f:	81 ff 00 00 01 00    	cmp    $0x10000,%edi
  403965:	0f 87 85 01 00 00    	ja     403af0 <profile_ctl+0x1b0>
  40396b:	48 8b 51 08          	mov    0x8(%rcx),%rdx
  40396f:	48 85 d2             	test   %rdx,%rdx
  403972:	74 28                	je     40399c <profile_ctl+0x5c>
  403974:	48 8b 49 10          	mov    0x10(%rcx),%rcx
  403978:	45 31 c9             	xor    %r9d,%r9d
  40397b:	41 b8 ff ff ff ff    	mov    $0xffffffff,%r8d
  403981:	ff 15 c5 59 00 00    	callq  *0x59c5(%rip)        # 40934c <__imp_SignalObjectAndWait>
  403987:	48 8b 4b 10          	mov    0x10(%rbx),%rcx
  40398b:	4c 8b 25 f2 58 00 00 	mov    0x58f2(%rip),%r12        # 409284 <__IAT_start__>
  403992:	41 ff d4             	callq  *%r12
  403995:	48 8b 4b 08          	mov    0x8(%rbx),%rcx
  403999:	41 ff d4             	callq  *%r12
  40399c:	48 8b 0b             	mov    (%rbx),%rcx
  40399f:	48 85 c9             	test   %rcx,%rcx
  4039a2:	74 06                	je     4039aa <profile_ctl+0x6a>
  4039a4:	ff 15 da 58 00 00    	callq  *0x58da(%rip)        # 409284 <__IAT_start__>
  4039aa:	45 31 e4             	xor    %r12d,%r12d
  4039ad:	85 ff                	test   %edi,%edi
  4039af:	75 10                	jne    4039c1 <profile_ctl+0x81>
  4039b1:	44 89 e0             	mov    %r12d,%eax
  4039b4:	48 83 c4 58          	add    $0x58,%rsp
  4039b8:	5b                   	pop    %rbx
  4039b9:	5e                   	pop    %rsi
  4039ba:	5f                   	pop    %rdi
  4039bb:	5d                   	pop    %rbp
  4039bc:	41 5c                	pop    %r12
  4039be:	41 5d                	pop    %r13
  4039c0:	c3                   	retq   
  4039c1:	49 89 f0             	mov    %rsi,%r8
  4039c4:	31 d2                	xor    %edx,%edx
  4039c6:	4c 89 e9             	mov    %r13,%rcx
  4039c9:	e8 0a 05 00 00       	callq  403ed8 <memset>
  4039ce:	48 89 f0             	mov    %rsi,%rax
  4039d1:	89 f9                	mov    %edi,%ecx
  4039d3:	31 d2                	xor    %edx,%edx
  4039d5:	48 d1 e8             	shr    %rax
  4039d8:	48 c7 03 00 00 00 00 	movq   $0x0,(%rbx)
  4039df:	48 8b 35 ce 58 00 00 	mov    0x58ce(%rip),%rsi        # 4092b4 <__imp_GetCurrentProcess>
  4039e6:	48 c1 e0 10          	shl    $0x10,%rax
  4039ea:	48 c7 43 08 00 00 00 	movq   $0x0,0x8(%rbx)
  4039f1:	00 
  4039f2:	48 f7 f1             	div    %rcx
  4039f5:	48 c7 43 10 00 00 00 	movq   $0x0,0x10(%rbx)
  4039fc:	00 
  4039fd:	48 c7 43 18 00 00 00 	movq   $0x0,0x18(%rbx)
  403a04:	00 
  403a05:	48 c7 43 20 00 00 00 	movq   $0x0,0x20(%rbx)
  403a0c:	00 
  403a0d:	48 c7 43 28 00 00 00 	movq   $0x0,0x28(%rbx)
  403a14:	00 
  403a15:	48 c7 43 30 00 00 00 	movq   $0x0,0x30(%rbx)
  403a1c:	00 
  403a1d:	48 89 2d 7c 4f 00 00 	mov    %rbp,0x4f7c(%rip)        # 4089a0 <prof+0x20>
  403a24:	89 3d 86 4f 00 00    	mov    %edi,0x4f86(%rip)        # 4089b0 <prof+0x30>
  403a2a:	4c 89 2d 67 4f 00 00 	mov    %r13,0x4f67(%rip)        # 408998 <prof+0x18>
  403a31:	48 8d 44 45 00       	lea    0x0(%rbp,%rax,2),%rax
  403a36:	48 89 05 6b 4f 00 00 	mov    %rax,0x4f6b(%rip)        # 4089a8 <prof+0x28>
  403a3d:	ff d6                	callq  *%rsi
  403a3f:	48 89 c5             	mov    %rax,%rbp
  403a42:	ff 15 7c 58 00 00    	callq  *0x587c(%rip)        # 4092c4 <__imp_GetCurrentThread>
  403a48:	48 89 c7             	mov    %rax,%rdi
  403a4b:	ff d6                	callq  *%rsi
  403a4d:	c7 44 24 30 02 00 00 	movl   $0x2,0x30(%rsp)
  403a54:	00 
  403a55:	49 89 d9             	mov    %rbx,%r9
  403a58:	49 89 e8             	mov    %rbp,%r8
  403a5b:	c7 44 24 28 00 00 00 	movl   $0x0,0x28(%rsp)
  403a62:	00 
  403a63:	48 89 fa             	mov    %rdi,%rdx
  403a66:	48 89 c1             	mov    %rax,%rcx
  403a69:	c7 44 24 20 00 00 00 	movl   $0x0,0x20(%rsp)
  403a70:	00 
  403a71:	ff 15 2d 58 00 00    	callq  *0x582d(%rip)        # 4092a4 <__imp_DuplicateHandle>
  403a77:	85 c0                	test   %eax,%eax
  403a79:	0f 84 88 00 00 00    	je     403b07 <profile_ctl+0x1c7>
  403a7f:	45 31 c9             	xor    %r9d,%r9d
  403a82:	45 31 c0             	xor    %r8d,%r8d
  403a85:	ba 01 00 00 00       	mov    $0x1,%edx
  403a8a:	31 c9                	xor    %ecx,%ecx
  403a8c:	ff 15 fa 57 00 00    	callq  *0x57fa(%rip)        # 40928c <__imp_CreateEventA>
  403a92:	48 89 43 10          	mov    %rax,0x10(%rbx)
  403a96:	48 85 c0             	test   %rax,%rax
  403a99:	0f 84 7f 00 00 00    	je     403b1e <profile_ctl+0x1de>
  403a9f:	48 8d 44 24 4c       	lea    0x4c(%rsp),%rax
  403aa4:	49 89 d9             	mov    %rbx,%r9
  403aa7:	31 d2                	xor    %edx,%edx
  403aa9:	31 c9                	xor    %ecx,%ecx
  403aab:	48 89 44 24 28       	mov    %rax,0x28(%rsp)
  403ab0:	4c 8d 05 19 fe ff ff 	lea    -0x1e7(%rip),%r8        # 4038d0 <profthr_func>
  403ab7:	c7 44 24 20 00 00 00 	movl   $0x0,0x20(%rsp)
  403abe:	00 
  403abf:	ff 15 cf 57 00 00    	callq  *0x57cf(%rip)        # 409294 <__imp_CreateThread>
  403ac5:	48 89 43 08          	mov    %rax,0x8(%rbx)
  403ac9:	48 85 c0             	test   %rax,%rax
  403acc:	74 76                	je     403b44 <profile_ctl+0x204>
  403ace:	ba 0f 00 00 00       	mov    $0xf,%edx
  403ad3:	48 89 c1             	mov    %rax,%rcx
  403ad6:	ff 15 60 58 00 00    	callq  *0x5860(%rip)        # 40933c <__imp_SetThreadPriority>
  403adc:	44 89 e0             	mov    %r12d,%eax
  403adf:	48 83 c4 58          	add    $0x58,%rsp
  403ae3:	5b                   	pop    %rbx
  403ae4:	5e                   	pop    %rsi
  403ae5:	5f                   	pop    %rdi
  403ae6:	5d                   	pop    %rbp
  403ae7:	41 5c                	pop    %r12
  403ae9:	41 5d                	pop    %r13
  403aeb:	c3                   	retq   
  403aec:	0f 1f 40 00          	nopl   0x0(%rax)
  403af0:	ff 15 06 59 00 00    	callq  *0x5906(%rip)        # 4093fc <__imp__errno>
  403af6:	41 bc ff ff ff ff    	mov    $0xffffffff,%r12d
  403afc:	c7 00 16 00 00 00    	movl   $0x16,(%rax)
  403b02:	e9 aa fe ff ff       	jmpq   4039b1 <profile_ctl+0x71>
  403b07:	ff 15 ef 58 00 00    	callq  *0x58ef(%rip)        # 4093fc <__imp__errno>
  403b0d:	41 bc ff ff ff ff    	mov    $0xffffffff,%r12d
  403b13:	c7 00 03 00 00 00    	movl   $0x3,(%rax)
  403b19:	e9 93 fe ff ff       	jmpq   4039b1 <profile_ctl+0x71>
  403b1e:	31 c9                	xor    %ecx,%ecx
  403b20:	41 bc ff ff ff ff    	mov    $0xffffffff,%r12d
  403b26:	ff 15 58 57 00 00    	callq  *0x5758(%rip)        # 409284 <__IAT_start__>
  403b2c:	48 c7 03 00 00 00 00 	movq   $0x0,(%rbx)
  403b33:	ff 15 c3 58 00 00    	callq  *0x58c3(%rip)        # 4093fc <__imp__errno>
  403b39:	c7 00 0b 00 00 00    	movl   $0xb,(%rax)
  403b3f:	e9 6d fe ff ff       	jmpq   4039b1 <profile_ctl+0x71>
  403b44:	48 8b 0b             	mov    (%rbx),%rcx
  403b47:	48 8b 35 36 57 00 00 	mov    0x5736(%rip),%rsi        # 409284 <__IAT_start__>
  403b4e:	41 bc ff ff ff ff    	mov    $0xffffffff,%r12d
  403b54:	ff d6                	callq  *%rsi
  403b56:	48 8b 4b 10          	mov    0x10(%rbx),%rcx
  403b5a:	ff d6                	callq  *%rsi
  403b5c:	48 c7 03 00 00 00 00 	movq   $0x0,(%rbx)
  403b63:	ff 15 93 58 00 00    	callq  *0x5893(%rip)        # 4093fc <__imp__errno>
  403b69:	c7 00 0b 00 00 00    	movl   $0xb,(%rax)
  403b6f:	e9 3d fe ff ff       	jmpq   4039b1 <profile_ctl+0x71>
  403b74:	66 90                	xchg   %ax,%ax
  403b76:	66 2e 0f 1f 84 00 00 	nopw   %cs:0x0(%rax,%rax,1)
  403b7d:	00 00 00 

0000000000403b80 <profil>:
  403b80:	41 54                	push   %r12
  403b82:	55                   	push   %rbp
  403b83:	57                   	push   %rdi
  403b84:	56                   	push   %rsi
  403b85:	53                   	push   %rbx
  403b86:	48 83 ec 50          	sub    $0x50,%rsp
  403b8a:	49 89 cc             	mov    %rcx,%r12
  403b8d:	48 89 d3             	mov    %rdx,%rbx
  403b90:	4c 89 c7             	mov    %r8,%rdi
  403b93:	44 89 ce             	mov    %r9d,%esi
  403b96:	41 81 f9 00 00 01 00 	cmp    $0x10000,%r9d
  403b9d:	0f 87 8d 01 00 00    	ja     403d30 <profil+0x1b0>
  403ba3:	48 8b 15 de 4d 00 00 	mov    0x4dde(%rip),%rdx        # 408988 <prof+0x8>
  403baa:	48 85 d2             	test   %rdx,%rdx
  403bad:	74 2f                	je     403bde <profil+0x5e>
  403baf:	45 31 c9             	xor    %r9d,%r9d
  403bb2:	41 b8 ff ff ff ff    	mov    $0xffffffff,%r8d
  403bb8:	48 8b 0d d1 4d 00 00 	mov    0x4dd1(%rip),%rcx        # 408990 <prof+0x10>
  403bbf:	ff 15 87 57 00 00    	callq  *0x5787(%rip)        # 40934c <__imp_SignalObjectAndWait>
  403bc5:	48 8b 0d c4 4d 00 00 	mov    0x4dc4(%rip),%rcx        # 408990 <prof+0x10>
  403bcc:	48 8b 2d b1 56 00 00 	mov    0x56b1(%rip),%rbp        # 409284 <__IAT_start__>
  403bd3:	ff d5                	callq  *%rbp
  403bd5:	48 8b 0d ac 4d 00 00 	mov    0x4dac(%rip),%rcx        # 408988 <prof+0x8>
  403bdc:	ff d5                	callq  *%rbp
  403bde:	48 8b 0d 9b 4d 00 00 	mov    0x4d9b(%rip),%rcx        # 408980 <prof>
  403be5:	48 85 c9             	test   %rcx,%rcx
  403be8:	74 06                	je     403bf0 <profil+0x70>
  403bea:	ff 15 94 56 00 00    	callq  *0x5694(%rip)        # 409284 <__IAT_start__>
  403bf0:	31 ed                	xor    %ebp,%ebp
  403bf2:	85 f6                	test   %esi,%esi
  403bf4:	75 0d                	jne    403c03 <profil+0x83>
  403bf6:	89 e8                	mov    %ebp,%eax
  403bf8:	48 83 c4 50          	add    $0x50,%rsp
  403bfc:	5b                   	pop    %rbx
  403bfd:	5e                   	pop    %rsi
  403bfe:	5f                   	pop    %rdi
  403bff:	5d                   	pop    %rbp
  403c00:	41 5c                	pop    %r12
  403c02:	c3                   	retq   
  403c03:	49 89 d8             	mov    %rbx,%r8
  403c06:	31 d2                	xor    %edx,%edx
  403c08:	4c 89 e1             	mov    %r12,%rcx
  403c0b:	e8 c8 02 00 00       	callq  403ed8 <memset>
  403c10:	48 89 d8             	mov    %rbx,%rax
  403c13:	89 f1                	mov    %esi,%ecx
  403c15:	31 d2                	xor    %edx,%edx
  403c17:	48 d1 e8             	shr    %rax
  403c1a:	48 89 3d 7f 4d 00 00 	mov    %rdi,0x4d7f(%rip)        # 4089a0 <prof+0x20>
  403c21:	48 8b 1d 8c 56 00 00 	mov    0x568c(%rip),%rbx        # 4092b4 <__imp_GetCurrentProcess>
  403c28:	48 c1 e0 10          	shl    $0x10,%rax
  403c2c:	48 c7 05 79 4d 00 00 	movq   $0x0,0x4d79(%rip)        # 4089b0 <prof+0x30>
  403c33:	00 00 00 00 
  403c37:	48 f7 f1             	div    %rcx
  403c3a:	89 35 70 4d 00 00    	mov    %esi,0x4d70(%rip)        # 4089b0 <prof+0x30>
  403c40:	48 c7 05 35 4d 00 00 	movq   $0x0,0x4d35(%rip)        # 408980 <prof>
  403c47:	00 00 00 00 
  403c4b:	48 c7 05 32 4d 00 00 	movq   $0x0,0x4d32(%rip)        # 408988 <prof+0x8>
  403c52:	00 00 00 00 
  403c56:	48 c7 05 2f 4d 00 00 	movq   $0x0,0x4d2f(%rip)        # 408990 <prof+0x10>
  403c5d:	00 00 00 00 
  403c61:	4c 89 25 30 4d 00 00 	mov    %r12,0x4d30(%rip)        # 408998 <prof+0x18>
  403c68:	48 8d 04 47          	lea    (%rdi,%rax,2),%rax
  403c6c:	48 89 05 35 4d 00 00 	mov    %rax,0x4d35(%rip)        # 4089a8 <prof+0x28>
  403c73:	ff d3                	callq  *%rbx
  403c75:	48 89 c7             	mov    %rax,%rdi
  403c78:	ff 15 46 56 00 00    	callq  *0x5646(%rip)        # 4092c4 <__imp_GetCurrentThread>
  403c7e:	48 89 c6             	mov    %rax,%rsi
  403c81:	ff d3                	callq  *%rbx
  403c83:	c7 44 24 30 02 00 00 	movl   $0x2,0x30(%rsp)
  403c8a:	00 
  403c8b:	49 89 f8             	mov    %rdi,%r8
  403c8e:	48 89 f2             	mov    %rsi,%rdx
  403c91:	c7 44 24 28 00 00 00 	movl   $0x0,0x28(%rsp)
  403c98:	00 
  403c99:	4c 8d 0d e0 4c 00 00 	lea    0x4ce0(%rip),%r9        # 408980 <prof>
  403ca0:	48 89 c1             	mov    %rax,%rcx
  403ca3:	c7 44 24 20 00 00 00 	movl   $0x0,0x20(%rsp)
  403caa:	00 
  403cab:	ff 15 f3 55 00 00    	callq  *0x55f3(%rip)        # 4092a4 <__imp_DuplicateHandle>
  403cb1:	85 c0                	test   %eax,%eax
  403cb3:	0f 84 8d 00 00 00    	je     403d46 <profil+0x1c6>
  403cb9:	45 31 c9             	xor    %r9d,%r9d
  403cbc:	45 31 c0             	xor    %r8d,%r8d
  403cbf:	ba 01 00 00 00       	mov    $0x1,%edx
  403cc4:	31 c9                	xor    %ecx,%ecx
  403cc6:	ff 15 c0 55 00 00    	callq  *0x55c0(%rip)        # 40928c <__imp_CreateEventA>
  403ccc:	48 89 05 bd 4c 00 00 	mov    %rax,0x4cbd(%rip)        # 408990 <prof+0x10>
  403cd3:	48 85 c0             	test   %rax,%rax
  403cd6:	0f 84 80 00 00 00    	je     403d5c <profil+0x1dc>
  403cdc:	48 8d 44 24 4c       	lea    0x4c(%rsp),%rax
  403ce1:	4c 8d 0d 98 4c 00 00 	lea    0x4c98(%rip),%r9        # 408980 <prof>
  403ce8:	31 d2                	xor    %edx,%edx
  403cea:	31 c9                	xor    %ecx,%ecx
  403cec:	48 89 44 24 28       	mov    %rax,0x28(%rsp)
  403cf1:	4c 8d 05 d8 fb ff ff 	lea    -0x428(%rip),%r8        # 4038d0 <profthr_func>
  403cf8:	c7 44 24 20 00 00 00 	movl   $0x0,0x20(%rsp)
  403cff:	00 
  403d00:	ff 15 8e 55 00 00    	callq  *0x558e(%rip)        # 409294 <__imp_CreateThread>
  403d06:	48 89 05 7b 4c 00 00 	mov    %rax,0x4c7b(%rip)        # 408988 <prof+0x8>
  403d0d:	48 85 c0             	test   %rax,%rax
  403d10:	74 73                	je     403d85 <profil+0x205>
  403d12:	ba 0f 00 00 00       	mov    $0xf,%edx
  403d17:	48 89 c1             	mov    %rax,%rcx
  403d1a:	ff 15 1c 56 00 00    	callq  *0x561c(%rip)        # 40933c <__imp_SetThreadPriority>
  403d20:	89 e8                	mov    %ebp,%eax
  403d22:	48 83 c4 50          	add    $0x50,%rsp
  403d26:	5b                   	pop    %rbx
  403d27:	5e                   	pop    %rsi
  403d28:	5f                   	pop    %rdi
  403d29:	5d                   	pop    %rbp
  403d2a:	41 5c                	pop    %r12
  403d2c:	c3                   	retq   
  403d2d:	0f 1f 00             	nopl   (%rax)
  403d30:	ff 15 c6 56 00 00    	callq  *0x56c6(%rip)        # 4093fc <__imp__errno>
  403d36:	bd ff ff ff ff       	mov    $0xffffffff,%ebp
  403d3b:	c7 00 16 00 00 00    	movl   $0x16,(%rax)
  403d41:	e9 b0 fe ff ff       	jmpq   403bf6 <profil+0x76>
  403d46:	ff 15 b0 56 00 00    	callq  *0x56b0(%rip)        # 4093fc <__imp__errno>
  403d4c:	bd ff ff ff ff       	mov    $0xffffffff,%ebp
  403d51:	c7 00 03 00 00 00    	movl   $0x3,(%rax)
  403d57:	e9 9a fe ff ff       	jmpq   403bf6 <profil+0x76>
  403d5c:	31 c9                	xor    %ecx,%ecx
  403d5e:	bd ff ff ff ff       	mov    $0xffffffff,%ebp
  403d63:	ff 15 1b 55 00 00    	callq  *0x551b(%rip)        # 409284 <__IAT_start__>
  403d69:	48 c7 05 0c 4c 00 00 	movq   $0x0,0x4c0c(%rip)        # 408980 <prof>
  403d70:	00 00 00 00 
  403d74:	ff 15 82 56 00 00    	callq  *0x5682(%rip)        # 4093fc <__imp__errno>
  403d7a:	c7 00 0b 00 00 00    	movl   $0xb,(%rax)
  403d80:	e9 71 fe ff ff       	jmpq   403bf6 <profil+0x76>
  403d85:	48 8b 0d f4 4b 00 00 	mov    0x4bf4(%rip),%rcx        # 408980 <prof>
  403d8c:	48 8b 1d f1 54 00 00 	mov    0x54f1(%rip),%rbx        # 409284 <__IAT_start__>
  403d93:	bd ff ff ff ff       	mov    $0xffffffff,%ebp
  403d98:	ff d3                	callq  *%rbx
  403d9a:	48 8b 0d ef 4b 00 00 	mov    0x4bef(%rip),%rcx        # 408990 <prof+0x10>
  403da1:	ff d3                	callq  *%rbx
  403da3:	48 c7 05 d2 4b 00 00 	movq   $0x0,0x4bd2(%rip)        # 408980 <prof>
  403daa:	00 00 00 00 
  403dae:	ff 15 48 56 00 00    	callq  *0x5648(%rip)        # 4093fc <__imp__errno>
  403db4:	c7 00 0b 00 00 00    	movl   $0xb,(%rax)
  403dba:	e9 37 fe ff ff       	jmpq   403bf6 <profil+0x76>
  403dbf:	90                   	nop

0000000000403dc0 <WaitForSingleObject>:
  403dc0:	ff 25 c6 55 00 00    	jmpq   *0x55c6(%rip)        # 40938c <__imp_WaitForSingleObject>
  403dc6:	90                   	nop
  403dc7:	90                   	nop

0000000000403dc8 <VirtualQuery>:
  403dc8:	ff 25 b6 55 00 00    	jmpq   *0x55b6(%rip)        # 409384 <__imp_VirtualQuery>
  403dce:	90                   	nop
  403dcf:	90                   	nop

0000000000403dd0 <VirtualProtect>:
  403dd0:	ff 25 a6 55 00 00    	jmpq   *0x55a6(%rip)        # 40937c <__imp_VirtualProtect>
  403dd6:	90                   	nop
  403dd7:	90                   	nop

0000000000403dd8 <UnhandledExceptionFilter>:
  403dd8:	ff 25 96 55 00 00    	jmpq   *0x5596(%rip)        # 409374 <__imp_UnhandledExceptionFilter>
  403dde:	90                   	nop
  403ddf:	90                   	nop

0000000000403de0 <TlsGetValue>:
  403de0:	ff 25 86 55 00 00    	jmpq   *0x5586(%rip)        # 40936c <__imp_TlsGetValue>
  403de6:	90                   	nop
  403de7:	90                   	nop

0000000000403de8 <TerminateProcess>:
  403de8:	ff 25 76 55 00 00    	jmpq   *0x5576(%rip)        # 409364 <__imp_TerminateProcess>
  403dee:	90                   	nop
  403def:	90                   	nop

0000000000403df0 <SuspendThread>:
  403df0:	ff 25 66 55 00 00    	jmpq   *0x5566(%rip)        # 40935c <__imp_SuspendThread>
  403df6:	90                   	nop
  403df7:	90                   	nop

0000000000403df8 <Sleep>:
  403df8:	ff 25 56 55 00 00    	jmpq   *0x5556(%rip)        # 409354 <__imp_Sleep>
  403dfe:	90                   	nop
  403dff:	90                   	nop

0000000000403e00 <SignalObjectAndWait>:
  403e00:	ff 25 46 55 00 00    	jmpq   *0x5546(%rip)        # 40934c <__imp_SignalObjectAndWait>
  403e06:	90                   	nop
  403e07:	90                   	nop

0000000000403e08 <SetUnhandledExceptionFilter>:
  403e08:	ff 25 36 55 00 00    	jmpq   *0x5536(%rip)        # 409344 <__imp_SetUnhandledExceptionFilter>
  403e0e:	90                   	nop
  403e0f:	90                   	nop

0000000000403e10 <SetThreadPriority>:
  403e10:	ff 25 26 55 00 00    	jmpq   *0x5526(%rip)        # 40933c <__imp_SetThreadPriority>
  403e16:	90                   	nop
  403e17:	90                   	nop

0000000000403e18 <RtlVirtualUnwind>:
  403e18:	ff 25 16 55 00 00    	jmpq   *0x5516(%rip)        # 409334 <__imp_RtlVirtualUnwind>
  403e1e:	90                   	nop
  403e1f:	90                   	nop

0000000000403e20 <RtlLookupFunctionEntry>:
  403e20:	ff 25 06 55 00 00    	jmpq   *0x5506(%rip)        # 40932c <__imp_RtlLookupFunctionEntry>
  403e26:	90                   	nop
  403e27:	90                   	nop

0000000000403e28 <RtlCaptureContext>:
  403e28:	ff 25 f6 54 00 00    	jmpq   *0x54f6(%rip)        # 409324 <__imp_RtlCaptureContext>
  403e2e:	90                   	nop
  403e2f:	90                   	nop

0000000000403e30 <RtlAddFunctionTable>:
  403e30:	ff 25 e6 54 00 00    	jmpq   *0x54e6(%rip)        # 40931c <__imp_RtlAddFunctionTable>
  403e36:	90                   	nop
  403e37:	90                   	nop

0000000000403e38 <ResumeThread>:
  403e38:	ff 25 d6 54 00 00    	jmpq   *0x54d6(%rip)        # 409314 <__imp_ResumeThread>
  403e3e:	90                   	nop
  403e3f:	90                   	nop

0000000000403e40 <QueryPerformanceCounter>:
  403e40:	ff 25 c6 54 00 00    	jmpq   *0x54c6(%rip)        # 40930c <__imp_QueryPerformanceCounter>
  403e46:	90                   	nop
  403e47:	90                   	nop

0000000000403e48 <LeaveCriticalSection>:
  403e48:	ff 25 b6 54 00 00    	jmpq   *0x54b6(%rip)        # 409304 <__imp_LeaveCriticalSection>
  403e4e:	90                   	nop
  403e4f:	90                   	nop

0000000000403e50 <InitializeCriticalSection>:
  403e50:	ff 25 a6 54 00 00    	jmpq   *0x54a6(%rip)        # 4092fc <__imp_InitializeCriticalSection>
  403e56:	90                   	nop
  403e57:	90                   	nop

0000000000403e58 <GetTickCount>:
  403e58:	ff 25 96 54 00 00    	jmpq   *0x5496(%rip)        # 4092f4 <__imp_GetTickCount>
  403e5e:	90                   	nop
  403e5f:	90                   	nop

0000000000403e60 <GetThreadContext>:
  403e60:	ff 25 86 54 00 00    	jmpq   *0x5486(%rip)        # 4092ec <__imp_GetThreadContext>
  403e66:	90                   	nop
  403e67:	90                   	nop

0000000000403e68 <GetSystemTimeAsFileTime>:
  403e68:	ff 25 76 54 00 00    	jmpq   *0x5476(%rip)        # 4092e4 <__imp_GetSystemTimeAsFileTime>
  403e6e:	90                   	nop
  403e6f:	90                   	nop

0000000000403e70 <GetStartupInfoA>:
  403e70:	ff 25 66 54 00 00    	jmpq   *0x5466(%rip)        # 4092dc <__imp_GetStartupInfoA>
  403e76:	90                   	nop
  403e77:	90                   	nop

0000000000403e78 <GetLastError>:
  403e78:	ff 25 56 54 00 00    	jmpq   *0x5456(%rip)        # 4092d4 <__imp_GetLastError>
  403e7e:	90                   	nop
  403e7f:	90                   	nop

0000000000403e80 <GetCurrentThreadId>:
  403e80:	ff 25 46 54 00 00    	jmpq   *0x5446(%rip)        # 4092cc <__imp_GetCurrentThreadId>
  403e86:	90                   	nop
  403e87:	90                   	nop

0000000000403e88 <GetCurrentThread>:
  403e88:	ff 25 36 54 00 00    	jmpq   *0x5436(%rip)        # 4092c4 <__imp_GetCurrentThread>
  403e8e:	90                   	nop
  403e8f:	90                   	nop

0000000000403e90 <GetCurrentProcessId>:
  403e90:	ff 25 26 54 00 00    	jmpq   *0x5426(%rip)        # 4092bc <__imp_GetCurrentProcessId>
  403e96:	90                   	nop
  403e97:	90                   	nop

0000000000403e98 <GetCurrentProcess>:
  403e98:	ff 25 16 54 00 00    	jmpq   *0x5416(%rip)        # 4092b4 <__imp_GetCurrentProcess>
  403e9e:	90                   	nop
  403e9f:	90                   	nop

0000000000403ea0 <EnterCriticalSection>:
  403ea0:	ff 25 06 54 00 00    	jmpq   *0x5406(%rip)        # 4092ac <__imp_EnterCriticalSection>
  403ea6:	90                   	nop
  403ea7:	90                   	nop

0000000000403ea8 <DuplicateHandle>:
  403ea8:	ff 25 f6 53 00 00    	jmpq   *0x53f6(%rip)        # 4092a4 <__imp_DuplicateHandle>
  403eae:	90                   	nop
  403eaf:	90                   	nop

0000000000403eb0 <DeleteCriticalSection>:
  403eb0:	ff 25 e6 53 00 00    	jmpq   *0x53e6(%rip)        # 40929c <__imp_DeleteCriticalSection>
  403eb6:	90                   	nop
  403eb7:	90                   	nop

0000000000403eb8 <CreateThread>:
  403eb8:	ff 25 d6 53 00 00    	jmpq   *0x53d6(%rip)        # 409294 <__imp_CreateThread>
  403ebe:	90                   	nop
  403ebf:	90                   	nop

0000000000403ec0 <CreateEventA>:
  403ec0:	ff 25 c6 53 00 00    	jmpq   *0x53c6(%rip)        # 40928c <__imp_CreateEventA>
  403ec6:	90                   	nop
  403ec7:	90                   	nop

0000000000403ec8 <CloseHandle>:
  403ec8:	ff 25 b6 53 00 00    	jmpq   *0x53b6(%rip)        # 409284 <__IAT_start__>
  403ece:	90                   	nop
  403ecf:	90                   	nop

0000000000403ed0 <perror>:
  403ed0:	ff 25 ae 55 00 00    	jmpq   *0x55ae(%rip)        # 409484 <__imp_perror>
  403ed6:	90                   	nop
  403ed7:	90                   	nop

0000000000403ed8 <memset>:
  403ed8:	ff 25 9e 55 00 00    	jmpq   *0x559e(%rip)        # 40947c <__imp_memset>
  403ede:	90                   	nop
  403edf:	90                   	nop

0000000000403ee0 <write>:
  403ee0:	ff 25 4e 55 00 00    	jmpq   *0x554e(%rip)        # 409434 <__imp_write>
  403ee6:	90                   	nop
  403ee7:	90                   	nop

0000000000403ee8 <open>:
  403ee8:	ff 25 36 55 00 00    	jmpq   *0x5536(%rip)        # 409424 <__imp_open>
  403eee:	90                   	nop
  403eef:	90                   	nop

0000000000403ef0 <_errno>:
  403ef0:	ff 25 06 55 00 00    	jmpq   *0x5506(%rip)        # 4093fc <__imp__errno>
  403ef6:	90                   	nop
  403ef7:	90                   	nop

0000000000403ef8 <close>:
  403ef8:	ff 25 f6 54 00 00    	jmpq   *0x54f6(%rip)        # 4093f4 <__imp_close>
  403efe:	90                   	nop
  403eff:	90                   	nop

0000000000403f00 <_monstartup>:
  403f00:	48 83 ec 28          	sub    $0x28,%rsp
  403f04:	8b 05 26 41 00 00    	mov    0x4126(%rip),%eax        # 408030 <called.2624>
  403f0a:	8d 50 01             	lea    0x1(%rax),%edx
  403f0d:	89 15 1d 41 00 00    	mov    %edx,0x411d(%rip)        # 408030 <called.2624>
  403f13:	85 c0                	test   %eax,%eax
  403f15:	74 05                	je     403f1c <_monstartup+0x1c>
  403f17:	48 83 c4 28          	add    $0x28,%rsp
  403f1b:	c3                   	retq   
  403f1c:	48 8b 15 7d 16 00 00 	mov    0x167d(%rip),%rdx        # 4055a0 <.refptr.etext>
  403f23:	48 8b 0d 16 15 00 00 	mov    0x1516(%rip),%rcx        # 405440 <.refptr.__eprol>
  403f2a:	e8 d1 f3 ff ff       	callq  403300 <monstartup>
  403f2f:	48 8d 0d 8a f5 ff ff 	lea    -0xa76(%rip),%rcx        # 4034c0 <_mcleanup>
  403f36:	48 83 c4 28          	add    $0x28,%rsp
  403f3a:	e9 71 dc ff ff       	jmpq   401bb0 <atexit>
  403f3f:	90                   	nop

0000000000403f40 <register_frame_ctor>:
  403f40:	55                   	push   %rbp
  403f41:	48 89 e5             	mov    %rsp,%rbp
  403f44:	5d                   	pop    %rbp
  403f45:	e9 f6 d5 ff ff       	jmpq   401540 <__gcc_register_frame>
  403f4a:	90                   	nop
  403f4b:	90                   	nop
  403f4c:	90                   	nop
  403f4d:	90                   	nop
  403f4e:	90                   	nop
  403f4f:	90                   	nop

0000000000403f50 <__CTOR_LIST__>:
  403f50:	ff                   	(bad)  
  403f51:	ff                   	(bad)  
  403f52:	ff                   	(bad)  
  403f53:	ff                   	(bad)  
  403f54:	ff                   	(bad)  
  403f55:	ff                   	(bad)  
  403f56:	ff                   	(bad)  
  403f57:	ff                   	.byte 0xff

0000000000403f58 <.ctors>:
  403f58:	00 3f                	add    %bh,(%rdi)
  403f5a:	40 00 00             	add    %al,(%rax)
  403f5d:	00 00                	add    %al,(%rax)
	...

0000000000403f60 <.ctors.65535>:
  403f60:	40 3f                	rex (bad) 
  403f62:	40 00 00             	add    %al,(%rax)
	...

0000000000403f70 <__DTOR_LIST__>:
  403f70:	ff                   	(bad)  
  403f71:	ff                   	(bad)  
  403f72:	ff                   	(bad)  
  403f73:	ff                   	(bad)  
  403f74:	ff                   	(bad)  
  403f75:	ff                   	(bad)  
  403f76:	ff                   	(bad)  
  403f77:	ff 00                	incl   (%rax)
  403f79:	00 00                	add    %al,(%rax)
  403f7b:	00 00                	add    %al,(%rax)
  403f7d:	00 00                	add    %al,(%rax)
	...
